
bomb:     file format elf64-x86-64


Disassembly of section .init:

0000000000000d88 <_init>:
 d88:	48 83 ec 08          	sub    $0x8,%rsp
 d8c:	48 8b 05 55 32 20 00 	mov    0x203255(%rip),%rax        # 203fe8 <__gmon_start__>
 d93:	48 85 c0             	test   %rax,%rax
 d96:	74 02                	je     d9a <_init+0x12>
 d98:	ff d0                	callq  *%rax
 d9a:	48 83 c4 08          	add    $0x8,%rsp
 d9e:	c3                   	retq   

Disassembly of section .plt:

0000000000000da0 <.plt>:
 da0:	ff 35 5a 31 20 00    	pushq  0x20315a(%rip)        # 203f00 <_GLOBAL_OFFSET_TABLE_+0x8>
 da6:	ff 25 5c 31 20 00    	jmpq   *0x20315c(%rip)        # 203f08 <_GLOBAL_OFFSET_TABLE_+0x10>
 dac:	0f 1f 40 00          	nopl   0x0(%rax)

0000000000000db0 <getenv@plt>:
 db0:	ff 25 5a 31 20 00    	jmpq   *0x20315a(%rip)        # 203f10 <getenv@GLIBC_2.2.5>
 db6:	68 00 00 00 00       	pushq  $0x0
 dbb:	e9 e0 ff ff ff       	jmpq   da0 <.plt>

0000000000000dc0 <__errno_location@plt>:
 dc0:	ff 25 52 31 20 00    	jmpq   *0x203152(%rip)        # 203f18 <__errno_location@GLIBC_2.2.5>
 dc6:	68 01 00 00 00       	pushq  $0x1
 dcb:	e9 d0 ff ff ff       	jmpq   da0 <.plt>

0000000000000dd0 <strcpy@plt>:
 dd0:	ff 25 4a 31 20 00    	jmpq   *0x20314a(%rip)        # 203f20 <strcpy@GLIBC_2.2.5>
 dd6:	68 02 00 00 00       	pushq  $0x2
 ddb:	e9 c0 ff ff ff       	jmpq   da0 <.plt>

0000000000000de0 <puts@plt>:
 de0:	ff 25 42 31 20 00    	jmpq   *0x203142(%rip)        # 203f28 <puts@GLIBC_2.2.5>
 de6:	68 03 00 00 00       	pushq  $0x3
 deb:	e9 b0 ff ff ff       	jmpq   da0 <.plt>

0000000000000df0 <write@plt>:
 df0:	ff 25 3a 31 20 00    	jmpq   *0x20313a(%rip)        # 203f30 <write@GLIBC_2.2.5>
 df6:	68 04 00 00 00       	pushq  $0x4
 dfb:	e9 a0 ff ff ff       	jmpq   da0 <.plt>

0000000000000e00 <__stack_chk_fail@plt>:
 e00:	ff 25 32 31 20 00    	jmpq   *0x203132(%rip)        # 203f38 <__stack_chk_fail@GLIBC_2.4>
 e06:	68 05 00 00 00       	pushq  $0x5
 e0b:	e9 90 ff ff ff       	jmpq   da0 <.plt>

0000000000000e10 <alarm@plt>:
 e10:	ff 25 2a 31 20 00    	jmpq   *0x20312a(%rip)        # 203f40 <alarm@GLIBC_2.2.5>
 e16:	68 06 00 00 00       	pushq  $0x6
 e1b:	e9 80 ff ff ff       	jmpq   da0 <.plt>

0000000000000e20 <close@plt>:
 e20:	ff 25 22 31 20 00    	jmpq   *0x203122(%rip)        # 203f48 <close@GLIBC_2.2.5>
 e26:	68 07 00 00 00       	pushq  $0x7
 e2b:	e9 70 ff ff ff       	jmpq   da0 <.plt>

0000000000000e30 <read@plt>:
 e30:	ff 25 1a 31 20 00    	jmpq   *0x20311a(%rip)        # 203f50 <read@GLIBC_2.2.5>
 e36:	68 08 00 00 00       	pushq  $0x8
 e3b:	e9 60 ff ff ff       	jmpq   da0 <.plt>

0000000000000e40 <fgets@plt>:
 e40:	ff 25 12 31 20 00    	jmpq   *0x203112(%rip)        # 203f58 <fgets@GLIBC_2.2.5>
 e46:	68 09 00 00 00       	pushq  $0x9
 e4b:	e9 50 ff ff ff       	jmpq   da0 <.plt>

0000000000000e50 <signal@plt>:
 e50:	ff 25 0a 31 20 00    	jmpq   *0x20310a(%rip)        # 203f60 <signal@GLIBC_2.2.5>
 e56:	68 0a 00 00 00       	pushq  $0xa
 e5b:	e9 40 ff ff ff       	jmpq   da0 <.plt>

0000000000000e60 <gethostbyname@plt>:
 e60:	ff 25 02 31 20 00    	jmpq   *0x203102(%rip)        # 203f68 <gethostbyname@GLIBC_2.2.5>
 e66:	68 0b 00 00 00       	pushq  $0xb
 e6b:	e9 30 ff ff ff       	jmpq   da0 <.plt>

0000000000000e70 <__memmove_chk@plt>:
 e70:	ff 25 fa 30 20 00    	jmpq   *0x2030fa(%rip)        # 203f70 <__memmove_chk@GLIBC_2.3.4>
 e76:	68 0c 00 00 00       	pushq  $0xc
 e7b:	e9 20 ff ff ff       	jmpq   da0 <.plt>

0000000000000e80 <strtol@plt>:
 e80:	ff 25 f2 30 20 00    	jmpq   *0x2030f2(%rip)        # 203f78 <strtol@GLIBC_2.2.5>
 e86:	68 0d 00 00 00       	pushq  $0xd
 e8b:	e9 10 ff ff ff       	jmpq   da0 <.plt>

0000000000000e90 <fflush@plt>:
 e90:	ff 25 ea 30 20 00    	jmpq   *0x2030ea(%rip)        # 203f80 <fflush@GLIBC_2.2.5>
 e96:	68 0e 00 00 00       	pushq  $0xe
 e9b:	e9 00 ff ff ff       	jmpq   da0 <.plt>

0000000000000ea0 <__isoc99_sscanf@plt>:
 ea0:	ff 25 e2 30 20 00    	jmpq   *0x2030e2(%rip)        # 203f88 <__isoc99_sscanf@GLIBC_2.7>
 ea6:	68 0f 00 00 00       	pushq  $0xf
 eab:	e9 f0 fe ff ff       	jmpq   da0 <.plt>

0000000000000eb0 <__printf_chk@plt>:
 eb0:	ff 25 da 30 20 00    	jmpq   *0x2030da(%rip)        # 203f90 <__printf_chk@GLIBC_2.3.4>
 eb6:	68 10 00 00 00       	pushq  $0x10
 ebb:	e9 e0 fe ff ff       	jmpq   da0 <.plt>

0000000000000ec0 <fopen@plt>:
 ec0:	ff 25 d2 30 20 00    	jmpq   *0x2030d2(%rip)        # 203f98 <fopen@GLIBC_2.2.5>
 ec6:	68 11 00 00 00       	pushq  $0x11
 ecb:	e9 d0 fe ff ff       	jmpq   da0 <.plt>

0000000000000ed0 <exit@plt>:
 ed0:	ff 25 ca 30 20 00    	jmpq   *0x2030ca(%rip)        # 203fa0 <exit@GLIBC_2.2.5>
 ed6:	68 12 00 00 00       	pushq  $0x12
 edb:	e9 c0 fe ff ff       	jmpq   da0 <.plt>

0000000000000ee0 <connect@plt>:
 ee0:	ff 25 c2 30 20 00    	jmpq   *0x2030c2(%rip)        # 203fa8 <connect@GLIBC_2.2.5>
 ee6:	68 13 00 00 00       	pushq  $0x13
 eeb:	e9 b0 fe ff ff       	jmpq   da0 <.plt>

0000000000000ef0 <__fprintf_chk@plt>:
 ef0:	ff 25 ba 30 20 00    	jmpq   *0x2030ba(%rip)        # 203fb0 <__fprintf_chk@GLIBC_2.3.4>
 ef6:	68 14 00 00 00       	pushq  $0x14
 efb:	e9 a0 fe ff ff       	jmpq   da0 <.plt>

0000000000000f00 <sleep@plt>:
 f00:	ff 25 b2 30 20 00    	jmpq   *0x2030b2(%rip)        # 203fb8 <sleep@GLIBC_2.2.5>
 f06:	68 15 00 00 00       	pushq  $0x15
 f0b:	e9 90 fe ff ff       	jmpq   da0 <.plt>

0000000000000f10 <__ctype_b_loc@plt>:
 f10:	ff 25 aa 30 20 00    	jmpq   *0x2030aa(%rip)        # 203fc0 <__ctype_b_loc@GLIBC_2.3>
 f16:	68 16 00 00 00       	pushq  $0x16
 f1b:	e9 80 fe ff ff       	jmpq   da0 <.plt>

0000000000000f20 <__sprintf_chk@plt>:
 f20:	ff 25 a2 30 20 00    	jmpq   *0x2030a2(%rip)        # 203fc8 <__sprintf_chk@GLIBC_2.3.4>
 f26:	68 17 00 00 00       	pushq  $0x17
 f2b:	e9 70 fe ff ff       	jmpq   da0 <.plt>

0000000000000f30 <socket@plt>:
 f30:	ff 25 9a 30 20 00    	jmpq   *0x20309a(%rip)        # 203fd0 <socket@GLIBC_2.2.5>
 f36:	68 18 00 00 00       	pushq  $0x18
 f3b:	e9 60 fe ff ff       	jmpq   da0 <.plt>

Disassembly of section .plt.got:

0000000000000f40 <__cxa_finalize@plt>:
 f40:	ff 25 b2 30 20 00    	jmpq   *0x2030b2(%rip)        # 203ff8 <__cxa_finalize@GLIBC_2.2.5>
 f46:	66 90                	xchg   %ax,%ax

Disassembly of section .text:

0000000000000f50 <_start>:
     f50:	31 ed                	xor    %ebp,%ebp
     f52:	49 89 d1             	mov    %rdx,%r9
     f55:	5e                   	pop    %rsi
     f56:	48 89 e2             	mov    %rsp,%rdx
     f59:	48 83 e4 f0          	and    $0xfffffffffffffff0,%rsp
     f5d:	50                   	push   %rax
     f5e:	54                   	push   %rsp
     f5f:	4c 8d 05 7a 17 00 00 	lea    0x177a(%rip),%r8        # 26e0 <__libc_csu_fini>
     f66:	48 8d 0d 03 17 00 00 	lea    0x1703(%rip),%rcx        # 2670 <__libc_csu_init>
     f6d:	48 8d 3d e6 00 00 00 	lea    0xe6(%rip),%rdi        # 105a <main>
     f74:	ff 15 66 30 20 00    	callq  *0x203066(%rip)        # 203fe0 <__libc_start_main@GLIBC_2.2.5>
     f7a:	f4                   	hlt    
     f7b:	0f 1f 44 00 00       	nopl   0x0(%rax,%rax,1)

0000000000000f80 <deregister_tm_clones>:
     f80:	48 8d 3d d9 36 20 00 	lea    0x2036d9(%rip),%rdi        # 204660 <stdout@@GLIBC_2.2.5>
     f87:	55                   	push   %rbp
     f88:	48 8d 05 d1 36 20 00 	lea    0x2036d1(%rip),%rax        # 204660 <stdout@@GLIBC_2.2.5>
     f8f:	48 39 f8             	cmp    %rdi,%rax
     f92:	48 89 e5             	mov    %rsp,%rbp
     f95:	74 19                	je     fb0 <deregister_tm_clones+0x30>
     f97:	48 8b 05 3a 30 20 00 	mov    0x20303a(%rip),%rax        # 203fd8 <_ITM_deregisterTMCloneTable>
     f9e:	48 85 c0             	test   %rax,%rax
     fa1:	74 0d                	je     fb0 <deregister_tm_clones+0x30>
     fa3:	5d                   	pop    %rbp
     fa4:	ff e0                	jmpq   *%rax
     fa6:	66 2e 0f 1f 84 00 00 	nopw   %cs:0x0(%rax,%rax,1)
     fad:	00 00 00 
     fb0:	5d                   	pop    %rbp
     fb1:	c3                   	retq   
     fb2:	0f 1f 40 00          	nopl   0x0(%rax)
     fb6:	66 2e 0f 1f 84 00 00 	nopw   %cs:0x0(%rax,%rax,1)
     fbd:	00 00 00 

0000000000000fc0 <register_tm_clones>:
     fc0:	48 8d 3d 99 36 20 00 	lea    0x203699(%rip),%rdi        # 204660 <stdout@@GLIBC_2.2.5>
     fc7:	48 8d 35 92 36 20 00 	lea    0x203692(%rip),%rsi        # 204660 <stdout@@GLIBC_2.2.5>
     fce:	55                   	push   %rbp
     fcf:	48 29 fe             	sub    %rdi,%rsi
     fd2:	48 89 e5             	mov    %rsp,%rbp
     fd5:	48 c1 fe 03          	sar    $0x3,%rsi
     fd9:	48 89 f0             	mov    %rsi,%rax
     fdc:	48 c1 e8 3f          	shr    $0x3f,%rax
     fe0:	48 01 c6             	add    %rax,%rsi
     fe3:	48 d1 fe             	sar    %rsi
     fe6:	74 18                	je     1000 <register_tm_clones+0x40>
     fe8:	48 8b 05 01 30 20 00 	mov    0x203001(%rip),%rax        # 203ff0 <_ITM_registerTMCloneTable>
     fef:	48 85 c0             	test   %rax,%rax
     ff2:	74 0c                	je     1000 <register_tm_clones+0x40>
     ff4:	5d                   	pop    %rbp
     ff5:	ff e0                	jmpq   *%rax
     ff7:	66 0f 1f 84 00 00 00 	nopw   0x0(%rax,%rax,1)
     ffe:	00 00 
    1000:	5d                   	pop    %rbp
    1001:	c3                   	retq   
    1002:	0f 1f 40 00          	nopl   0x0(%rax)
    1006:	66 2e 0f 1f 84 00 00 	nopw   %cs:0x0(%rax,%rax,1)
    100d:	00 00 00 

0000000000001010 <__do_global_dtors_aux>:
    1010:	80 3d 71 36 20 00 00 	cmpb   $0x0,0x203671(%rip)        # 204688 <completed.7698>
    1017:	75 2f                	jne    1048 <__do_global_dtors_aux+0x38>
    1019:	48 83 3d d7 2f 20 00 	cmpq   $0x0,0x202fd7(%rip)        # 203ff8 <__cxa_finalize@GLIBC_2.2.5>
    1020:	00 
    1021:	55                   	push   %rbp
    1022:	48 89 e5             	mov    %rsp,%rbp
    1025:	74 0c                	je     1033 <__do_global_dtors_aux+0x23>
    1027:	48 8b 3d da 2f 20 00 	mov    0x202fda(%rip),%rdi        # 204008 <__dso_handle>
    102e:	e8 0d ff ff ff       	callq  f40 <__cxa_finalize@plt>
    1033:	e8 48 ff ff ff       	callq  f80 <deregister_tm_clones>
    1038:	c6 05 49 36 20 00 01 	movb   $0x1,0x203649(%rip)        # 204688 <completed.7698>
    103f:	5d                   	pop    %rbp
    1040:	c3                   	retq   
    1041:	0f 1f 80 00 00 00 00 	nopl   0x0(%rax)
    1048:	f3 c3                	repz retq 
    104a:	66 0f 1f 44 00 00    	nopw   0x0(%rax,%rax,1)

0000000000001050 <frame_dummy>:
    1050:	55                   	push   %rbp
    1051:	48 89 e5             	mov    %rsp,%rbp
    1054:	5d                   	pop    %rbp
    1055:	e9 66 ff ff ff       	jmpq   fc0 <register_tm_clones>

000000000000105a <main>:
    105a:	53                   	push   %rbx
    105b:	83 ff 01             	cmp    $0x1,%edi
    105e:	0f 84 f8 00 00 00    	je     115c <main+0x102>
    1064:	48 89 f3             	mov    %rsi,%rbx
    1067:	83 ff 02             	cmp    $0x2,%edi
    106a:	0f 85 21 01 00 00    	jne    1191 <main+0x137>
    1070:	48 8b 7e 08          	mov    0x8(%rsi),%rdi
    1074:	48 8d 35 89 16 00 00 	lea    0x1689(%rip),%rsi        # 2704 <_IO_stdin_used+0x4>
    107b:	e8 40 fe ff ff       	callq  ec0 <fopen@plt>
    1080:	48 89 05 09 36 20 00 	mov    %rax,0x203609(%rip)        # 204690 <infile>
    1087:	48 85 c0             	test   %rax,%rax
    108a:	0f 84 df 00 00 00    	je     116f <main+0x115>
    1090:	e8 16 07 00 00       	callq  17ab <initialize_bomb>
    1095:	48 8d 3d ec 16 00 00 	lea    0x16ec(%rip),%rdi        # 2788 <_IO_stdin_used+0x88>
    109c:	e8 3f fd ff ff       	callq  de0 <puts@plt>
    10a1:	48 8d 3d 20 17 00 00 	lea    0x1720(%rip),%rdi        # 27c8 <_IO_stdin_used+0xc8>
    10a8:	e8 33 fd ff ff       	callq  de0 <puts@plt>
    10ad:	e8 05 08 00 00       	callq  18b7 <read_line>
    10b2:	48 89 c7             	mov    %rax,%rdi
    10b5:	e8 fa 00 00 00       	callq  11b4 <phase_1>
    10ba:	e8 3c 09 00 00       	callq  19fb <phase_defused>
    10bf:	48 8d 3d 32 17 00 00 	lea    0x1732(%rip),%rdi        # 27f8 <_IO_stdin_used+0xf8>
    10c6:	e8 15 fd ff ff       	callq  de0 <puts@plt>
    10cb:	e8 e7 07 00 00       	callq  18b7 <read_line>
    10d0:	48 89 c7             	mov    %rax,%rdi
    10d3:	e8 fc 00 00 00       	callq  11d4 <phase_2>
    10d8:	e8 1e 09 00 00       	callq  19fb <phase_defused>
    10dd:	48 8d 3d 59 16 00 00 	lea    0x1659(%rip),%rdi        # 273d <_IO_stdin_used+0x3d>
    10e4:	e8 f7 fc ff ff       	callq  de0 <puts@plt>
    10e9:	e8 c9 07 00 00       	callq  18b7 <read_line>
    10ee:	48 89 c7             	mov    %rax,%rdi
    10f1:	e8 47 01 00 00       	callq  123d <phase_3>
    10f6:	e8 00 09 00 00       	callq  19fb <phase_defused>
    10fb:	48 8d 3d 59 16 00 00 	lea    0x1659(%rip),%rdi        # 275b <_IO_stdin_used+0x5b>
    1102:	e8 d9 fc ff ff       	callq  de0 <puts@plt>
    1107:	e8 ab 07 00 00       	callq  18b7 <read_line>
    110c:	48 89 c7             	mov    %rax,%rdi
    110f:	e8 d0 02 00 00       	callq  13e4 <phase_4>
    1114:	e8 e2 08 00 00       	callq  19fb <phase_defused>
    1119:	48 8d 3d 08 17 00 00 	lea    0x1708(%rip),%rdi        # 2828 <_IO_stdin_used+0x128>
    1120:	e8 bb fc ff ff       	callq  de0 <puts@plt>
    1125:	e8 8d 07 00 00       	callq  18b7 <read_line>
    112a:	48 89 c7             	mov    %rax,%rdi
    112d:	e8 27 03 00 00       	callq  1459 <phase_5>
    1132:	e8 c4 08 00 00       	callq  19fb <phase_defused>
    1137:	48 8d 3d 2c 16 00 00 	lea    0x162c(%rip),%rdi        # 276a <_IO_stdin_used+0x6a>
    113e:	e8 9d fc ff ff       	callq  de0 <puts@plt>
    1143:	e8 6f 07 00 00       	callq  18b7 <read_line>
    1148:	48 89 c7             	mov    %rax,%rdi
    114b:	e8 9c 03 00 00       	callq  14ec <phase_6>
    1150:	e8 a6 08 00 00       	callq  19fb <phase_defused>
    1155:	b8 00 00 00 00       	mov    $0x0,%eax
    115a:	5b                   	pop    %rbx
    115b:	c3                   	retq   
    115c:	48 8b 05 0d 35 20 00 	mov    0x20350d(%rip),%rax        # 204670 <stdin@@GLIBC_2.2.5>
    1163:	48 89 05 26 35 20 00 	mov    %rax,0x203526(%rip)        # 204690 <infile>
    116a:	e9 21 ff ff ff       	jmpq   1090 <main+0x36>
    116f:	48 8b 4b 08          	mov    0x8(%rbx),%rcx
    1173:	48 8b 13             	mov    (%rbx),%rdx
    1176:	48 8d 35 89 15 00 00 	lea    0x1589(%rip),%rsi        # 2706 <_IO_stdin_used+0x6>
    117d:	bf 01 00 00 00       	mov    $0x1,%edi
    1182:	e8 29 fd ff ff       	callq  eb0 <__printf_chk@plt>
    1187:	bf 08 00 00 00       	mov    $0x8,%edi
    118c:	e8 3f fd ff ff       	callq  ed0 <exit@plt>
    1191:	48 8b 16             	mov    (%rsi),%rdx
    1194:	48 8d 35 88 15 00 00 	lea    0x1588(%rip),%rsi        # 2723 <_IO_stdin_used+0x23>
    119b:	bf 01 00 00 00       	mov    $0x1,%edi
    11a0:	b8 00 00 00 00       	mov    $0x0,%eax
    11a5:	e8 06 fd ff ff       	callq  eb0 <__printf_chk@plt>
    11aa:	bf 08 00 00 00       	mov    $0x8,%edi
    11af:	e8 1c fd ff ff       	callq  ed0 <exit@plt>

00000000000011b4 <phase_1>:
    11b4:	48 83 ec 08          	sub    $0x8,%rsp
    11b8:	48 8d 35 91 16 00 00 	lea    0x1691(%rip),%rsi        # 2850 <_IO_stdin_used+0x150>
    11bf:	e8 80 05 00 00       	callq  1744 <strings_not_equal>
    11c4:	85 c0                	test   %eax,%eax
    11c6:	75 05                	jne    11cd <phase_1+0x19>
    11c8:	48 83 c4 08          	add    $0x8,%rsp
    11cc:	c3                   	retq   
    11cd:	e8 7e 06 00 00       	callq  1850 <explode_bomb>
    11d2:	eb f4                	jmp    11c8 <phase_1+0x14>

00000000000011d4 <phase_2>:
    11d4:	55                   	push   %rbp
    11d5:	53                   	push   %rbx
    11d6:	48 83 ec 28          	sub    $0x28,%rsp
    11da:	64 48 8b 04 25 28 00 	mov    %fs:0x28,%rax
    11e1:	00 00 
    11e3:	48 89 44 24 18       	mov    %rax,0x18(%rsp)
    11e8:	31 c0                	xor    %eax,%eax
    11ea:	48 89 e6             	mov    %rsp,%rsi
    11ed:	e8 84 06 00 00       	callq  1876 <read_six_numbers>
    11f2:	83 3c 24 01          	cmpl   $0x1,(%rsp)
    11f6:	75 09                	jne    1201 <phase_2+0x2d>
    11f8:	48 89 e3             	mov    %rsp,%rbx
    11fb:	48 8d 6b 14          	lea    0x14(%rbx),%rbp
    11ff:	eb 10                	jmp    1211 <phase_2+0x3d>
    1201:	e8 4a 06 00 00       	callq  1850 <explode_bomb>
    1206:	eb f0                	jmp    11f8 <phase_2+0x24>
    1208:	48 83 c3 04          	add    $0x4,%rbx
    120c:	48 39 eb             	cmp    %rbp,%rbx
    120f:	74 10                	je     1221 <phase_2+0x4d>
    1211:	8b 03                	mov    (%rbx),%eax
    1213:	01 c0                	add    %eax,%eax
    1215:	39 43 04             	cmp    %eax,0x4(%rbx)
    1218:	74 ee                	je     1208 <phase_2+0x34>
    121a:	e8 31 06 00 00       	callq  1850 <explode_bomb>
    121f:	eb e7                	jmp    1208 <phase_2+0x34>
    1221:	48 8b 44 24 18       	mov    0x18(%rsp),%rax
    1226:	64 48 33 04 25 28 00 	xor    %fs:0x28,%rax
    122d:	00 00 
    122f:	75 07                	jne    1238 <phase_2+0x64>
    1231:	48 83 c4 28          	add    $0x28,%rsp
    1235:	5b                   	pop    %rbx
    1236:	5d                   	pop    %rbp
    1237:	c3                   	retq   
    1238:	e8 c3 fb ff ff       	callq  e00 <__stack_chk_fail@plt>

000000000000123d <phase_3>:
    123d:	48 83 ec 28          	sub    $0x28,%rsp
    1241:	64 48 8b 04 25 28 00 	mov    %fs:0x28,%rax
    1248:	00 00 
    124a:	48 89 44 24 18       	mov    %rax,0x18(%rsp)
    124f:	31 c0                	xor    %eax,%eax
    1251:	48 8d 4c 24 0f       	lea    0xf(%rsp),%rcx
    1256:	48 8d 54 24 10       	lea    0x10(%rsp),%rdx
    125b:	4c 8d 44 24 14       	lea    0x14(%rsp),%r8
    1260:	48 8d 35 3f 16 00 00 	lea    0x163f(%rip),%rsi        # 28a6 <_IO_stdin_used+0x1a6>
    1267:	e8 34 fc ff ff       	callq  ea0 <__isoc99_sscanf@plt>
    126c:	83 f8 02             	cmp    $0x2,%eax
    126f:	7e 1f                	jle    1290 <phase_3+0x53>
    1271:	83 7c 24 10 07       	cmpl   $0x7,0x10(%rsp)
    1276:	0f 87 05 01 00 00    	ja     1381 <phase_3+0x144>
    127c:	8b 44 24 10          	mov    0x10(%rsp),%eax
    1280:	48 8d 15 39 16 00 00 	lea    0x1639(%rip),%rdx        # 28c0 <_IO_stdin_used+0x1c0>
    1287:	48 63 04 82          	movslq (%rdx,%rax,4),%rax
    128b:	48 01 d0             	add    %rdx,%rax
    128e:	ff e0                	jmpq   *%rax
    1290:	e8 bb 05 00 00       	callq  1850 <explode_bomb>
    1295:	eb da                	jmp    1271 <phase_3+0x34>
    1297:	b8 65 00 00 00       	mov    $0x65,%eax
    129c:	81 7c 24 14 e7 02 00 	cmpl   $0x2e7,0x14(%rsp)
    12a3:	00 
    12a4:	0f 84 e1 00 00 00    	je     138b <phase_3+0x14e>
    12aa:	e8 a1 05 00 00       	callq  1850 <explode_bomb>
    12af:	b8 65 00 00 00       	mov    $0x65,%eax
    12b4:	e9 d2 00 00 00       	jmpq   138b <phase_3+0x14e>
    12b9:	b8 6b 00 00 00       	mov    $0x6b,%eax
    12be:	81 7c 24 14 69 02 00 	cmpl   $0x269,0x14(%rsp)
    12c5:	00 
    12c6:	0f 84 bf 00 00 00    	je     138b <phase_3+0x14e>
    12cc:	e8 7f 05 00 00       	callq  1850 <explode_bomb>
    12d1:	b8 6b 00 00 00       	mov    $0x6b,%eax
    12d6:	e9 b0 00 00 00       	jmpq   138b <phase_3+0x14e>
    12db:	b8 66 00 00 00       	mov    $0x66,%eax
    12e0:	81 7c 24 14 38 01 00 	cmpl   $0x138,0x14(%rsp)
    12e7:	00 
    12e8:	0f 84 9d 00 00 00    	je     138b <phase_3+0x14e>
    12ee:	e8 5d 05 00 00       	callq  1850 <explode_bomb>
    12f3:	b8 66 00 00 00       	mov    $0x66,%eax
    12f8:	e9 8e 00 00 00       	jmpq   138b <phase_3+0x14e>
    12fd:	b8 75 00 00 00       	mov    $0x75,%eax
    1302:	81 7c 24 14 c1 00 00 	cmpl   $0xc1,0x14(%rsp)
    1309:	00 
    130a:	74 7f                	je     138b <phase_3+0x14e>
    130c:	e8 3f 05 00 00       	callq  1850 <explode_bomb>
    1311:	b8 75 00 00 00       	mov    $0x75,%eax
    1316:	eb 73                	jmp    138b <phase_3+0x14e>
    1318:	b8 62 00 00 00       	mov    $0x62,%eax
    131d:	83 7c 24 14 6e       	cmpl   $0x6e,0x14(%rsp)
    1322:	74 67                	je     138b <phase_3+0x14e>
    1324:	e8 27 05 00 00       	callq  1850 <explode_bomb>
    1329:	b8 62 00 00 00       	mov    $0x62,%eax
    132e:	eb 5b                	jmp    138b <phase_3+0x14e>
    1330:	b8 75 00 00 00       	mov    $0x75,%eax
    1335:	81 7c 24 14 20 03 00 	cmpl   $0x320,0x14(%rsp)
    133c:	00 
    133d:	74 4c                	je     138b <phase_3+0x14e>
    133f:	e8 0c 05 00 00       	callq  1850 <explode_bomb>
    1344:	b8 75 00 00 00       	mov    $0x75,%eax
    1349:	eb 40                	jmp    138b <phase_3+0x14e>
    134b:	b8 79 00 00 00       	mov    $0x79,%eax
    1350:	81 7c 24 14 08 03 00 	cmpl   $0x308,0x14(%rsp)
    1357:	00 
    1358:	74 31                	je     138b <phase_3+0x14e>
    135a:	e8 f1 04 00 00       	callq  1850 <explode_bomb>
    135f:	b8 79 00 00 00       	mov    $0x79,%eax
    1364:	eb 25                	jmp    138b <phase_3+0x14e>
    1366:	b8 61 00 00 00       	mov    $0x61,%eax
    136b:	81 7c 24 14 a9 00 00 	cmpl   $0xa9,0x14(%rsp)
    1372:	00 
    1373:	74 16                	je     138b <phase_3+0x14e>
    1375:	e8 d6 04 00 00       	callq  1850 <explode_bomb>
    137a:	b8 61 00 00 00       	mov    $0x61,%eax
    137f:	eb 0a                	jmp    138b <phase_3+0x14e>
    1381:	e8 ca 04 00 00       	callq  1850 <explode_bomb>
    1386:	b8 71 00 00 00       	mov    $0x71,%eax
    138b:	38 44 24 0f          	cmp    %al,0xf(%rsp)
    138f:	74 05                	je     1396 <phase_3+0x159>
    1391:	e8 ba 04 00 00       	callq  1850 <explode_bomb>
    1396:	48 8b 44 24 18       	mov    0x18(%rsp),%rax
    139b:	64 48 33 04 25 28 00 	xor    %fs:0x28,%rax
    13a2:	00 00 
    13a4:	75 05                	jne    13ab <phase_3+0x16e>
    13a6:	48 83 c4 28          	add    $0x28,%rsp
    13aa:	c3                   	retq   
    13ab:	e8 50 fa ff ff       	callq  e00 <__stack_chk_fail@plt>

00000000000013b0 <func4>:
    13b0:	53                   	push   %rbx
    13b1:	89 d0                	mov    %edx,%eax
    13b3:	29 f0                	sub    %esi,%eax
    13b5:	89 c3                	mov    %eax,%ebx
    13b7:	c1 eb 1f             	shr    $0x1f,%ebx
    13ba:	01 c3                	add    %eax,%ebx
    13bc:	d1 fb                	sar    %ebx
    13be:	01 f3                	add    %esi,%ebx
    13c0:	39 fb                	cmp    %edi,%ebx
    13c2:	7f 08                	jg     13cc <func4+0x1c>
    13c4:	39 fb                	cmp    %edi,%ebx
    13c6:	7c 10                	jl     13d8 <func4+0x28>
    13c8:	89 d8                	mov    %ebx,%eax
    13ca:	5b                   	pop    %rbx
    13cb:	c3                   	retq   
    13cc:	8d 53 ff             	lea    -0x1(%rbx),%edx
    13cf:	e8 dc ff ff ff       	callq  13b0 <func4>
    13d4:	01 c3                	add    %eax,%ebx
    13d6:	eb f0                	jmp    13c8 <func4+0x18>
    13d8:	8d 73 01             	lea    0x1(%rbx),%esi
    13db:	e8 d0 ff ff ff       	callq  13b0 <func4>
    13e0:	01 c3                	add    %eax,%ebx
    13e2:	eb e4                	jmp    13c8 <func4+0x18>

00000000000013e4 <phase_4>:
    13e4:	48 83 ec 18          	sub    $0x18,%rsp
    13e8:	64 48 8b 04 25 28 00 	mov    %fs:0x28,%rax
    13ef:	00 00 
    13f1:	48 89 44 24 08       	mov    %rax,0x8(%rsp)
    13f6:	31 c0                	xor    %eax,%eax
    13f8:	48 8d 4c 24 04       	lea    0x4(%rsp),%rcx
    13fd:	48 89 e2             	mov    %rsp,%rdx
    1400:	48 8d 35 28 16 00 00 	lea    0x1628(%rip),%rsi        # 2a2f <array.3416+0x14f>
    1407:	e8 94 fa ff ff       	callq  ea0 <__isoc99_sscanf@plt>
    140c:	83 f8 02             	cmp    $0x2,%eax
    140f:	75 06                	jne    1417 <phase_4+0x33>
    1411:	83 3c 24 0e          	cmpl   $0xe,(%rsp)
    1415:	76 05                	jbe    141c <phase_4+0x38>
    1417:	e8 34 04 00 00       	callq  1850 <explode_bomb>
    141c:	ba 0e 00 00 00       	mov    $0xe,%edx
    1421:	be 00 00 00 00       	mov    $0x0,%esi
    1426:	8b 3c 24             	mov    (%rsp),%edi
    1429:	e8 82 ff ff ff       	callq  13b0 <func4>
    142e:	83 f8 1f             	cmp    $0x1f,%eax
    1431:	75 07                	jne    143a <phase_4+0x56>
    1433:	83 7c 24 04 1f       	cmpl   $0x1f,0x4(%rsp)
    1438:	74 05                	je     143f <phase_4+0x5b>
    143a:	e8 11 04 00 00       	callq  1850 <explode_bomb>
    143f:	48 8b 44 24 08       	mov    0x8(%rsp),%rax
    1444:	64 48 33 04 25 28 00 	xor    %fs:0x28,%rax
    144b:	00 00 
    144d:	75 05                	jne    1454 <phase_4+0x70>
    144f:	48 83 c4 18          	add    $0x18,%rsp
    1453:	c3                   	retq   
    1454:	e8 a7 f9 ff ff       	callq  e00 <__stack_chk_fail@plt>

0000000000001459 <phase_5>:
    1459:	48 83 ec 18          	sub    $0x18,%rsp
    145d:	64 48 8b 04 25 28 00 	mov    %fs:0x28,%rax
    1464:	00 00 
    1466:	48 89 44 24 08       	mov    %rax,0x8(%rsp)
    146b:	31 c0                	xor    %eax,%eax
    146d:	48 8d 4c 24 04       	lea    0x4(%rsp),%rcx
    1472:	48 89 e2             	mov    %rsp,%rdx
    1475:	48 8d 35 b3 15 00 00 	lea    0x15b3(%rip),%rsi        # 2a2f <array.3416+0x14f>
    147c:	e8 1f fa ff ff       	callq  ea0 <__isoc99_sscanf@plt>
    1481:	83 f8 01             	cmp    $0x1,%eax
    1484:	7e 5a                	jle    14e0 <phase_5+0x87>
    1486:	8b 04 24             	mov    (%rsp),%eax
    1489:	83 e0 0f             	and    $0xf,%eax
    148c:	89 04 24             	mov    %eax,(%rsp)
    148f:	83 f8 0f             	cmp    $0xf,%eax
    1492:	74 32                	je     14c6 <phase_5+0x6d>
    1494:	b9 00 00 00 00       	mov    $0x0,%ecx
    1499:	ba 00 00 00 00       	mov    $0x0,%edx
    149e:	48 8d 35 3b 14 00 00 	lea    0x143b(%rip),%rsi        # 28e0 <array.3416>
    14a5:	83 c2 01             	add    $0x1,%edx
    14a8:	48 98                	cltq   
    14aa:	8b 04 86             	mov    (%rsi,%rax,4),%eax
    14ad:	01 c1                	add    %eax,%ecx
    14af:	83 f8 0f             	cmp    $0xf,%eax
    14b2:	75 f1                	jne    14a5 <phase_5+0x4c>
    14b4:	c7 04 24 0f 00 00 00 	movl   $0xf,(%rsp)
    14bb:	83 fa 0f             	cmp    $0xf,%edx
    14be:	75 06                	jne    14c6 <phase_5+0x6d>
    14c0:	39 4c 24 04          	cmp    %ecx,0x4(%rsp)
    14c4:	74 05                	je     14cb <phase_5+0x72>
    14c6:	e8 85 03 00 00       	callq  1850 <explode_bomb>
    14cb:	48 8b 44 24 08       	mov    0x8(%rsp),%rax
    14d0:	64 48 33 04 25 28 00 	xor    %fs:0x28,%rax
    14d7:	00 00 
    14d9:	75 0c                	jne    14e7 <phase_5+0x8e>
    14db:	48 83 c4 18          	add    $0x18,%rsp
    14df:	c3                   	retq   
    14e0:	e8 6b 03 00 00       	callq  1850 <explode_bomb>
    14e5:	eb 9f                	jmp    1486 <phase_5+0x2d>
    14e7:	e8 14 f9 ff ff       	callq  e00 <__stack_chk_fail@plt>

00000000000014ec <phase_6>:
    14ec:	41 55                	push   %r13
    14ee:	41 54                	push   %r12
    14f0:	55                   	push   %rbp
    14f1:	53                   	push   %rbx
    14f2:	48 83 ec 68          	sub    $0x68,%rsp
    14f6:	64 48 8b 04 25 28 00 	mov    %fs:0x28,%rax
    14fd:	00 00 
    14ff:	48 89 44 24 58       	mov    %rax,0x58(%rsp)
    1504:	31 c0                	xor    %eax,%eax
    1506:	49 89 e4             	mov    %rsp,%r12
    1509:	4c 89 e6             	mov    %r12,%rsi
    150c:	e8 65 03 00 00       	callq  1876 <read_six_numbers>
    1511:	41 bd 00 00 00 00    	mov    $0x0,%r13d
    1517:	eb 25                	jmp    153e <phase_6+0x52>
    1519:	e8 32 03 00 00       	callq  1850 <explode_bomb>
    151e:	eb 2d                	jmp    154d <phase_6+0x61>
    1520:	83 c3 01             	add    $0x1,%ebx
    1523:	83 fb 05             	cmp    $0x5,%ebx
    1526:	7f 12                	jg     153a <phase_6+0x4e>
    1528:	48 63 c3             	movslq %ebx,%rax
    152b:	8b 04 84             	mov    (%rsp,%rax,4),%eax
    152e:	39 45 00             	cmp    %eax,0x0(%rbp)
    1531:	75 ed                	jne    1520 <phase_6+0x34>
    1533:	e8 18 03 00 00       	callq  1850 <explode_bomb>
    1538:	eb e6                	jmp    1520 <phase_6+0x34>
    153a:	49 83 c4 04          	add    $0x4,%r12
    153e:	4c 89 e5             	mov    %r12,%rbp
    1541:	41 8b 04 24          	mov    (%r12),%eax
    1545:	83 e8 01             	sub    $0x1,%eax
    1548:	83 f8 05             	cmp    $0x5,%eax
    154b:	77 cc                	ja     1519 <phase_6+0x2d>
    154d:	41 83 c5 01          	add    $0x1,%r13d
    1551:	41 83 fd 06          	cmp    $0x6,%r13d
    1555:	74 35                	je     158c <phase_6+0xa0>
    1557:	44 89 eb             	mov    %r13d,%ebx
    155a:	eb cc                	jmp    1528 <phase_6+0x3c>
    155c:	48 8b 52 08          	mov    0x8(%rdx),%rdx
    1560:	83 c0 01             	add    $0x1,%eax
    1563:	39 c8                	cmp    %ecx,%eax
    1565:	75 f5                	jne    155c <phase_6+0x70>
    1567:	48 89 54 f4 20       	mov    %rdx,0x20(%rsp,%rsi,8)
    156c:	48 83 c6 01          	add    $0x1,%rsi
    1570:	48 83 fe 06          	cmp    $0x6,%rsi
    1574:	74 1d                	je     1593 <phase_6+0xa7>
    1576:	8b 0c b4             	mov    (%rsp,%rsi,4),%ecx
    1579:	b8 01 00 00 00       	mov    $0x1,%eax
    157e:	48 8d 15 8b 2c 20 00 	lea    0x202c8b(%rip),%rdx        # 204210 <node1>
    1585:	83 f9 01             	cmp    $0x1,%ecx
    1588:	7f d2                	jg     155c <phase_6+0x70>
    158a:	eb db                	jmp    1567 <phase_6+0x7b>
    158c:	be 00 00 00 00       	mov    $0x0,%esi
    1591:	eb e3                	jmp    1576 <phase_6+0x8a>
    1593:	48 8b 5c 24 20       	mov    0x20(%rsp),%rbx
    1598:	48 8b 44 24 28       	mov    0x28(%rsp),%rax
    159d:	48 89 43 08          	mov    %rax,0x8(%rbx)
    15a1:	48 8b 54 24 30       	mov    0x30(%rsp),%rdx
    15a6:	48 89 50 08          	mov    %rdx,0x8(%rax)
    15aa:	48 8b 44 24 38       	mov    0x38(%rsp),%rax
    15af:	48 89 42 08          	mov    %rax,0x8(%rdx)
    15b3:	48 8b 54 24 40       	mov    0x40(%rsp),%rdx
    15b8:	48 89 50 08          	mov    %rdx,0x8(%rax)
    15bc:	48 8b 44 24 48       	mov    0x48(%rsp),%rax
    15c1:	48 89 42 08          	mov    %rax,0x8(%rdx)
    15c5:	48 c7 40 08 00 00 00 	movq   $0x0,0x8(%rax)
    15cc:	00 
    15cd:	bd 05 00 00 00       	mov    $0x5,%ebp
    15d2:	eb 09                	jmp    15dd <phase_6+0xf1>
    15d4:	48 8b 5b 08          	mov    0x8(%rbx),%rbx
    15d8:	83 ed 01             	sub    $0x1,%ebp
    15db:	74 11                	je     15ee <phase_6+0x102>
    15dd:	48 8b 43 08          	mov    0x8(%rbx),%rax
    15e1:	8b 00                	mov    (%rax),%eax
    15e3:	39 03                	cmp    %eax,(%rbx)
    15e5:	7d ed                	jge    15d4 <phase_6+0xe8>
    15e7:	e8 64 02 00 00       	callq  1850 <explode_bomb>
    15ec:	eb e6                	jmp    15d4 <phase_6+0xe8>
    15ee:	48 8b 44 24 58       	mov    0x58(%rsp),%rax
    15f3:	64 48 33 04 25 28 00 	xor    %fs:0x28,%rax
    15fa:	00 00 
    15fc:	75 0b                	jne    1609 <phase_6+0x11d>
    15fe:	48 83 c4 68          	add    $0x68,%rsp
    1602:	5b                   	pop    %rbx
    1603:	5d                   	pop    %rbp
    1604:	41 5c                	pop    %r12
    1606:	41 5d                	pop    %r13
    1608:	c3                   	retq   
    1609:	e8 f2 f7 ff ff       	callq  e00 <__stack_chk_fail@plt>

000000000000160e <fun7>:
    160e:	48 85 ff             	test   %rdi,%rdi
    1611:	74 34                	je     1647 <fun7+0x39>
    1613:	48 83 ec 08          	sub    $0x8,%rsp
    1617:	8b 17                	mov    (%rdi),%edx
    1619:	39 f2                	cmp    %esi,%edx
    161b:	7f 0e                	jg     162b <fun7+0x1d>
    161d:	b8 00 00 00 00       	mov    $0x0,%eax
    1622:	39 f2                	cmp    %esi,%edx
    1624:	75 12                	jne    1638 <fun7+0x2a>
    1626:	48 83 c4 08          	add    $0x8,%rsp
    162a:	c3                   	retq   
    162b:	48 8b 7f 08          	mov    0x8(%rdi),%rdi
    162f:	e8 da ff ff ff       	callq  160e <fun7>
    1634:	01 c0                	add    %eax,%eax
    1636:	eb ee                	jmp    1626 <fun7+0x18>
    1638:	48 8b 7f 10          	mov    0x10(%rdi),%rdi
    163c:	e8 cd ff ff ff       	callq  160e <fun7>
    1641:	8d 44 00 01          	lea    0x1(%rax,%rax,1),%eax
    1645:	eb df                	jmp    1626 <fun7+0x18>
    1647:	b8 ff ff ff ff       	mov    $0xffffffff,%eax
    164c:	c3                   	retq   

000000000000164d <secret_phase>:
    164d:	53                   	push   %rbx
    164e:	e8 64 02 00 00       	callq  18b7 <read_line>
    1653:	ba 0a 00 00 00       	mov    $0xa,%edx
    1658:	be 00 00 00 00       	mov    $0x0,%esi
    165d:	48 89 c7             	mov    %rax,%rdi
    1660:	e8 1b f8 ff ff       	callq  e80 <strtol@plt>
    1665:	48 89 c3             	mov    %rax,%rbx
    1668:	8d 40 ff             	lea    -0x1(%rax),%eax
    166b:	3d e8 03 00 00       	cmp    $0x3e8,%eax
    1670:	77 2b                	ja     169d <secret_phase+0x50>
    1672:	89 de                	mov    %ebx,%esi
    1674:	48 8d 3d b5 2a 20 00 	lea    0x202ab5(%rip),%rdi        # 204130 <n1>
    167b:	e8 8e ff ff ff       	callq  160e <fun7>
    1680:	83 f8 01             	cmp    $0x1,%eax
    1683:	74 05                	je     168a <secret_phase+0x3d>
    1685:	e8 c6 01 00 00       	callq  1850 <explode_bomb>
    168a:	48 8d 3d ef 11 00 00 	lea    0x11ef(%rip),%rdi        # 2880 <_IO_stdin_used+0x180>
    1691:	e8 4a f7 ff ff       	callq  de0 <puts@plt>
    1696:	e8 60 03 00 00       	callq  19fb <phase_defused>
    169b:	5b                   	pop    %rbx
    169c:	c3                   	retq   
    169d:	e8 ae 01 00 00       	callq  1850 <explode_bomb>
    16a2:	eb ce                	jmp    1672 <secret_phase+0x25>

00000000000016a4 <sig_handler>:
    16a4:	48 83 ec 08          	sub    $0x8,%rsp
    16a8:	48 8d 3d 71 12 00 00 	lea    0x1271(%rip),%rdi        # 2920 <array.3416+0x40>
    16af:	e8 2c f7 ff ff       	callq  de0 <puts@plt>
    16b4:	bf 03 00 00 00       	mov    $0x3,%edi
    16b9:	e8 42 f8 ff ff       	callq  f00 <sleep@plt>
    16be:	48 8d 35 1d 13 00 00 	lea    0x131d(%rip),%rsi        # 29e2 <array.3416+0x102>
    16c5:	bf 01 00 00 00       	mov    $0x1,%edi
    16ca:	b8 00 00 00 00       	mov    $0x0,%eax
    16cf:	e8 dc f7 ff ff       	callq  eb0 <__printf_chk@plt>
    16d4:	48 8b 3d 85 2f 20 00 	mov    0x202f85(%rip),%rdi        # 204660 <stdout@@GLIBC_2.2.5>
    16db:	e8 b0 f7 ff ff       	callq  e90 <fflush@plt>
    16e0:	bf 01 00 00 00       	mov    $0x1,%edi
    16e5:	e8 16 f8 ff ff       	callq  f00 <sleep@plt>
    16ea:	48 8d 3d f9 12 00 00 	lea    0x12f9(%rip),%rdi        # 29ea <array.3416+0x10a>
    16f1:	e8 ea f6 ff ff       	callq  de0 <puts@plt>
    16f6:	bf 10 00 00 00       	mov    $0x10,%edi
    16fb:	e8 d0 f7 ff ff       	callq  ed0 <exit@plt>

0000000000001700 <invalid_phase>:
    1700:	48 83 ec 08          	sub    $0x8,%rsp
    1704:	48 89 fa             	mov    %rdi,%rdx
    1707:	48 8d 35 e4 12 00 00 	lea    0x12e4(%rip),%rsi        # 29f2 <array.3416+0x112>
    170e:	bf 01 00 00 00       	mov    $0x1,%edi
    1713:	b8 00 00 00 00       	mov    $0x0,%eax
    1718:	e8 93 f7 ff ff       	callq  eb0 <__printf_chk@plt>
    171d:	bf 08 00 00 00       	mov    $0x8,%edi
    1722:	e8 a9 f7 ff ff       	callq  ed0 <exit@plt>

0000000000001727 <string_length>:
    1727:	80 3f 00             	cmpb   $0x0,(%rdi)
    172a:	74 12                	je     173e <string_length+0x17>
    172c:	48 89 fa             	mov    %rdi,%rdx
    172f:	48 83 c2 01          	add    $0x1,%rdx
    1733:	89 d0                	mov    %edx,%eax
    1735:	29 f8                	sub    %edi,%eax
    1737:	80 3a 00             	cmpb   $0x0,(%rdx)
    173a:	75 f3                	jne    172f <string_length+0x8>
    173c:	f3 c3                	repz retq 
    173e:	b8 00 00 00 00       	mov    $0x0,%eax
    1743:	c3                   	retq   

0000000000001744 <strings_not_equal>:
    1744:	41 54                	push   %r12
    1746:	55                   	push   %rbp
    1747:	53                   	push   %rbx
    1748:	48 89 fb             	mov    %rdi,%rbx
    174b:	48 89 f5             	mov    %rsi,%rbp
    174e:	e8 d4 ff ff ff       	callq  1727 <string_length>
    1753:	41 89 c4             	mov    %eax,%r12d
    1756:	48 89 ef             	mov    %rbp,%rdi
    1759:	e8 c9 ff ff ff       	callq  1727 <string_length>
    175e:	ba 01 00 00 00       	mov    $0x1,%edx
    1763:	41 39 c4             	cmp    %eax,%r12d
    1766:	74 07                	je     176f <strings_not_equal+0x2b>
    1768:	89 d0                	mov    %edx,%eax
    176a:	5b                   	pop    %rbx
    176b:	5d                   	pop    %rbp
    176c:	41 5c                	pop    %r12
    176e:	c3                   	retq   
    176f:	0f b6 03             	movzbl (%rbx),%eax
    1772:	84 c0                	test   %al,%al
    1774:	74 27                	je     179d <strings_not_equal+0x59>
    1776:	3a 45 00             	cmp    0x0(%rbp),%al
    1779:	75 29                	jne    17a4 <strings_not_equal+0x60>
    177b:	48 83 c3 01          	add    $0x1,%rbx
    177f:	48 83 c5 01          	add    $0x1,%rbp
    1783:	0f b6 03             	movzbl (%rbx),%eax
    1786:	84 c0                	test   %al,%al
    1788:	74 0c                	je     1796 <strings_not_equal+0x52>
    178a:	38 45 00             	cmp    %al,0x0(%rbp)
    178d:	74 ec                	je     177b <strings_not_equal+0x37>
    178f:	ba 01 00 00 00       	mov    $0x1,%edx
    1794:	eb d2                	jmp    1768 <strings_not_equal+0x24>
    1796:	ba 00 00 00 00       	mov    $0x0,%edx
    179b:	eb cb                	jmp    1768 <strings_not_equal+0x24>
    179d:	ba 00 00 00 00       	mov    $0x0,%edx
    17a2:	eb c4                	jmp    1768 <strings_not_equal+0x24>
    17a4:	ba 01 00 00 00       	mov    $0x1,%edx
    17a9:	eb bd                	jmp    1768 <strings_not_equal+0x24>

00000000000017ab <initialize_bomb>:
    17ab:	48 83 ec 08          	sub    $0x8,%rsp
    17af:	48 8d 35 ee fe ff ff 	lea    -0x112(%rip),%rsi        # 16a4 <sig_handler>
    17b6:	bf 02 00 00 00       	mov    $0x2,%edi
    17bb:	e8 90 f6 ff ff       	callq  e50 <signal@plt>
    17c0:	48 83 c4 08          	add    $0x8,%rsp
    17c4:	c3                   	retq   

00000000000017c5 <initialize_bomb_solve>:
    17c5:	f3 c3                	repz retq 

00000000000017c7 <blank_line>:
    17c7:	55                   	push   %rbp
    17c8:	53                   	push   %rbx
    17c9:	48 83 ec 08          	sub    $0x8,%rsp
    17cd:	48 89 fd             	mov    %rdi,%rbp
    17d0:	0f b6 5d 00          	movzbl 0x0(%rbp),%ebx
    17d4:	84 db                	test   %bl,%bl
    17d6:	74 1e                	je     17f6 <blank_line+0x2f>
    17d8:	e8 33 f7 ff ff       	callq  f10 <__ctype_b_loc@plt>
    17dd:	48 83 c5 01          	add    $0x1,%rbp
    17e1:	48 0f be db          	movsbq %bl,%rbx
    17e5:	48 8b 00             	mov    (%rax),%rax
    17e8:	f6 44 58 01 20       	testb  $0x20,0x1(%rax,%rbx,2)
    17ed:	75 e1                	jne    17d0 <blank_line+0x9>
    17ef:	b8 00 00 00 00       	mov    $0x0,%eax
    17f4:	eb 05                	jmp    17fb <blank_line+0x34>
    17f6:	b8 01 00 00 00       	mov    $0x1,%eax
    17fb:	48 83 c4 08          	add    $0x8,%rsp
    17ff:	5b                   	pop    %rbx
    1800:	5d                   	pop    %rbp
    1801:	c3                   	retq   

0000000000001802 <skip>:
    1802:	55                   	push   %rbp
    1803:	53                   	push   %rbx
    1804:	48 83 ec 08          	sub    $0x8,%rsp
    1808:	48 8d 2d 91 2e 20 00 	lea    0x202e91(%rip),%rbp        # 2046a0 <input_strings>
    180f:	48 63 05 76 2e 20 00 	movslq 0x202e76(%rip),%rax        # 20468c <num_input_strings>
    1816:	48 8d 3c 80          	lea    (%rax,%rax,4),%rdi
    181a:	48 c1 e7 04          	shl    $0x4,%rdi
    181e:	48 01 ef             	add    %rbp,%rdi
    1821:	48 8b 15 68 2e 20 00 	mov    0x202e68(%rip),%rdx        # 204690 <infile>
    1828:	be 50 00 00 00       	mov    $0x50,%esi
    182d:	e8 0e f6 ff ff       	callq  e40 <fgets@plt>
    1832:	48 89 c3             	mov    %rax,%rbx
    1835:	48 85 c0             	test   %rax,%rax
    1838:	74 0c                	je     1846 <skip+0x44>
    183a:	48 89 c7             	mov    %rax,%rdi
    183d:	e8 85 ff ff ff       	callq  17c7 <blank_line>
    1842:	85 c0                	test   %eax,%eax
    1844:	75 c9                	jne    180f <skip+0xd>
    1846:	48 89 d8             	mov    %rbx,%rax
    1849:	48 83 c4 08          	add    $0x8,%rsp
    184d:	5b                   	pop    %rbx
    184e:	5d                   	pop    %rbp
    184f:	c3                   	retq   

0000000000001850 <explode_bomb>:
    1850:	48 83 ec 08          	sub    $0x8,%rsp
    1854:	48 8d 3d a8 11 00 00 	lea    0x11a8(%rip),%rdi        # 2a03 <array.3416+0x123>
    185b:	e8 80 f5 ff ff       	callq  de0 <puts@plt>
    1860:	48 8d 3d a5 11 00 00 	lea    0x11a5(%rip),%rdi        # 2a0c <array.3416+0x12c>
    1867:	e8 74 f5 ff ff       	callq  de0 <puts@plt>
    186c:	bf 08 00 00 00       	mov    $0x8,%edi
    1871:	e8 5a f6 ff ff       	callq  ed0 <exit@plt>

0000000000001876 <read_six_numbers>:
    1876:	48 83 ec 08          	sub    $0x8,%rsp
    187a:	48 89 f2             	mov    %rsi,%rdx
    187d:	48 8d 4e 04          	lea    0x4(%rsi),%rcx
    1881:	48 8d 46 14          	lea    0x14(%rsi),%rax
    1885:	50                   	push   %rax
    1886:	48 8d 46 10          	lea    0x10(%rsi),%rax
    188a:	50                   	push   %rax
    188b:	4c 8d 4e 0c          	lea    0xc(%rsi),%r9
    188f:	4c 8d 46 08          	lea    0x8(%rsi),%r8
    1893:	48 8d 35 89 11 00 00 	lea    0x1189(%rip),%rsi        # 2a23 <array.3416+0x143>
    189a:	b8 00 00 00 00       	mov    $0x0,%eax
    189f:	e8 fc f5 ff ff       	callq  ea0 <__isoc99_sscanf@plt>
    18a4:	48 83 c4 10          	add    $0x10,%rsp
    18a8:	83 f8 05             	cmp    $0x5,%eax
    18ab:	7e 05                	jle    18b2 <read_six_numbers+0x3c>
    18ad:	48 83 c4 08          	add    $0x8,%rsp
    18b1:	c3                   	retq   
    18b2:	e8 99 ff ff ff       	callq  1850 <explode_bomb>

00000000000018b7 <read_line>:
    18b7:	48 83 ec 08          	sub    $0x8,%rsp
    18bb:	b8 00 00 00 00       	mov    $0x0,%eax
    18c0:	e8 3d ff ff ff       	callq  1802 <skip>
    18c5:	48 85 c0             	test   %rax,%rax
    18c8:	74 6f                	je     1939 <read_line+0x82>
    18ca:	8b 35 bc 2d 20 00    	mov    0x202dbc(%rip),%esi        # 20468c <num_input_strings>
    18d0:	48 63 c6             	movslq %esi,%rax
    18d3:	48 8d 14 80          	lea    (%rax,%rax,4),%rdx
    18d7:	48 c1 e2 04          	shl    $0x4,%rdx
    18db:	48 8d 05 be 2d 20 00 	lea    0x202dbe(%rip),%rax        # 2046a0 <input_strings>
    18e2:	48 01 c2             	add    %rax,%rdx
    18e5:	48 c7 c1 ff ff ff ff 	mov    $0xffffffffffffffff,%rcx
    18ec:	b8 00 00 00 00       	mov    $0x0,%eax
    18f1:	48 89 d7             	mov    %rdx,%rdi
    18f4:	f2 ae                	repnz scas %es:(%rdi),%al
    18f6:	48 f7 d1             	not    %rcx
    18f9:	48 83 e9 01          	sub    $0x1,%rcx
    18fd:	83 f9 4e             	cmp    $0x4e,%ecx
    1900:	0f 8f ab 00 00 00    	jg     19b1 <read_line+0xfa>
    1906:	83 e9 01             	sub    $0x1,%ecx
    1909:	48 63 c9             	movslq %ecx,%rcx
    190c:	48 63 c6             	movslq %esi,%rax
    190f:	48 8d 04 80          	lea    (%rax,%rax,4),%rax
    1913:	48 c1 e0 04          	shl    $0x4,%rax
    1917:	48 89 c7             	mov    %rax,%rdi
    191a:	48 8d 05 7f 2d 20 00 	lea    0x202d7f(%rip),%rax        # 2046a0 <input_strings>
    1921:	48 01 f8             	add    %rdi,%rax
    1924:	c6 04 08 00          	movb   $0x0,(%rax,%rcx,1)
    1928:	83 c6 01             	add    $0x1,%esi
    192b:	89 35 5b 2d 20 00    	mov    %esi,0x202d5b(%rip)        # 20468c <num_input_strings>
    1931:	48 89 d0             	mov    %rdx,%rax
    1934:	48 83 c4 08          	add    $0x8,%rsp
    1938:	c3                   	retq   
    1939:	48 8b 05 30 2d 20 00 	mov    0x202d30(%rip),%rax        # 204670 <stdin@@GLIBC_2.2.5>
    1940:	48 39 05 49 2d 20 00 	cmp    %rax,0x202d49(%rip)        # 204690 <infile>
    1947:	74 1b                	je     1964 <read_line+0xad>
    1949:	48 8d 3d 03 11 00 00 	lea    0x1103(%rip),%rdi        # 2a53 <array.3416+0x173>
    1950:	e8 5b f4 ff ff       	callq  db0 <getenv@plt>
    1955:	48 85 c0             	test   %rax,%rax
    1958:	74 20                	je     197a <read_line+0xc3>
    195a:	bf 00 00 00 00       	mov    $0x0,%edi
    195f:	e8 6c f5 ff ff       	callq  ed0 <exit@plt>
    1964:	48 8d 3d ca 10 00 00 	lea    0x10ca(%rip),%rdi        # 2a35 <array.3416+0x155>
    196b:	e8 70 f4 ff ff       	callq  de0 <puts@plt>
    1970:	bf 08 00 00 00       	mov    $0x8,%edi
    1975:	e8 56 f5 ff ff       	callq  ed0 <exit@plt>
    197a:	48 8b 05 ef 2c 20 00 	mov    0x202cef(%rip),%rax        # 204670 <stdin@@GLIBC_2.2.5>
    1981:	48 89 05 08 2d 20 00 	mov    %rax,0x202d08(%rip)        # 204690 <infile>
    1988:	b8 00 00 00 00       	mov    $0x0,%eax
    198d:	e8 70 fe ff ff       	callq  1802 <skip>
    1992:	48 85 c0             	test   %rax,%rax
    1995:	0f 85 2f ff ff ff    	jne    18ca <read_line+0x13>
    199b:	48 8d 3d 93 10 00 00 	lea    0x1093(%rip),%rdi        # 2a35 <array.3416+0x155>
    19a2:	e8 39 f4 ff ff       	callq  de0 <puts@plt>
    19a7:	bf 00 00 00 00       	mov    $0x0,%edi
    19ac:	e8 1f f5 ff ff       	callq  ed0 <exit@plt>
    19b1:	48 8d 3d a6 10 00 00 	lea    0x10a6(%rip),%rdi        # 2a5e <array.3416+0x17e>
    19b8:	e8 23 f4 ff ff       	callq  de0 <puts@plt>
    19bd:	8b 05 c9 2c 20 00    	mov    0x202cc9(%rip),%eax        # 20468c <num_input_strings>
    19c3:	8d 50 01             	lea    0x1(%rax),%edx
    19c6:	89 15 c0 2c 20 00    	mov    %edx,0x202cc0(%rip)        # 20468c <num_input_strings>
    19cc:	48 98                	cltq   
    19ce:	48 6b c0 50          	imul   $0x50,%rax,%rax
    19d2:	48 8d 15 c7 2c 20 00 	lea    0x202cc7(%rip),%rdx        # 2046a0 <input_strings>
    19d9:	48 be 2a 2a 2a 74 72 	movabs $0x636e7572742a2a2a,%rsi
    19e0:	75 6e 63 
    19e3:	48 bf 61 74 65 64 2a 	movabs $0x2a2a2a64657461,%rdi
    19ea:	2a 2a 00 
    19ed:	48 89 34 02          	mov    %rsi,(%rdx,%rax,1)
    19f1:	48 89 7c 02 08       	mov    %rdi,0x8(%rdx,%rax,1)
    19f6:	e8 55 fe ff ff       	callq  1850 <explode_bomb>

00000000000019fb <phase_defused>:
    19fb:	48 83 ec 78          	sub    $0x78,%rsp
    19ff:	64 48 8b 04 25 28 00 	mov    %fs:0x28,%rax
    1a06:	00 00 
    1a08:	48 89 44 24 68       	mov    %rax,0x68(%rsp)
    1a0d:	31 c0                	xor    %eax,%eax
    1a0f:	83 3d 76 2c 20 00 06 	cmpl   $0x6,0x202c76(%rip)        # 20468c <num_input_strings>
    1a16:	74 15                	je     1a2d <phase_defused+0x32>
    1a18:	48 8b 44 24 68       	mov    0x68(%rsp),%rax
    1a1d:	64 48 33 04 25 28 00 	xor    %fs:0x28,%rax
    1a24:	00 00 
    1a26:	75 73                	jne    1a9b <phase_defused+0xa0>
    1a28:	48 83 c4 78          	add    $0x78,%rsp
    1a2c:	c3                   	retq   
    1a2d:	48 8d 4c 24 0c       	lea    0xc(%rsp),%rcx
    1a32:	48 8d 54 24 08       	lea    0x8(%rsp),%rdx
    1a37:	4c 8d 44 24 10       	lea    0x10(%rsp),%r8
    1a3c:	48 8d 35 36 10 00 00 	lea    0x1036(%rip),%rsi        # 2a79 <array.3416+0x199>
    1a43:	48 8d 3d 46 2d 20 00 	lea    0x202d46(%rip),%rdi        # 204790 <input_strings+0xf0>
    1a4a:	e8 51 f4 ff ff       	callq  ea0 <__isoc99_sscanf@plt>
    1a4f:	83 f8 03             	cmp    $0x3,%eax
    1a52:	74 0e                	je     1a62 <phase_defused+0x67>
    1a54:	48 8d 3d 5d 0f 00 00 	lea    0xf5d(%rip),%rdi        # 29b8 <array.3416+0xd8>
    1a5b:	e8 80 f3 ff ff       	callq  de0 <puts@plt>
    1a60:	eb b6                	jmp    1a18 <phase_defused+0x1d>
    1a62:	48 8d 7c 24 10       	lea    0x10(%rsp),%rdi
    1a67:	48 8d 35 14 10 00 00 	lea    0x1014(%rip),%rsi        # 2a82 <array.3416+0x1a2>
    1a6e:	e8 d1 fc ff ff       	callq  1744 <strings_not_equal>
    1a73:	85 c0                	test   %eax,%eax
    1a75:	75 dd                	jne    1a54 <phase_defused+0x59>
    1a77:	48 8d 3d da 0e 00 00 	lea    0xeda(%rip),%rdi        # 2958 <array.3416+0x78>
    1a7e:	e8 5d f3 ff ff       	callq  de0 <puts@plt>
    1a83:	48 8d 3d f6 0e 00 00 	lea    0xef6(%rip),%rdi        # 2980 <array.3416+0xa0>
    1a8a:	e8 51 f3 ff ff       	callq  de0 <puts@plt>
    1a8f:	b8 00 00 00 00       	mov    $0x0,%eax
    1a94:	e8 b4 fb ff ff       	callq  164d <secret_phase>
    1a99:	eb b9                	jmp    1a54 <phase_defused+0x59>
    1a9b:	e8 60 f3 ff ff       	callq  e00 <__stack_chk_fail@plt>

0000000000001aa0 <sigalrm_handler>:
    1aa0:	48 83 ec 08          	sub    $0x8,%rsp
    1aa4:	b9 00 00 00 00       	mov    $0x0,%ecx
    1aa9:	48 8d 15 e0 0f 00 00 	lea    0xfe0(%rip),%rdx        # 2a90 <array.3416+0x1b0>
    1ab0:	be 01 00 00 00       	mov    $0x1,%esi
    1ab5:	48 8b 3d c4 2b 20 00 	mov    0x202bc4(%rip),%rdi        # 204680 <stderr@@GLIBC_2.2.5>
    1abc:	b8 00 00 00 00       	mov    $0x0,%eax
    1ac1:	e8 2a f4 ff ff       	callq  ef0 <__fprintf_chk@plt>
    1ac6:	bf 01 00 00 00       	mov    $0x1,%edi
    1acb:	e8 00 f4 ff ff       	callq  ed0 <exit@plt>

0000000000001ad0 <rio_readlineb>:
    1ad0:	41 56                	push   %r14
    1ad2:	41 55                	push   %r13
    1ad4:	41 54                	push   %r12
    1ad6:	55                   	push   %rbp
    1ad7:	53                   	push   %rbx
    1ad8:	48 89 fb             	mov    %rdi,%rbx
    1adb:	49 89 f4             	mov    %rsi,%r12
    1ade:	49 89 d6             	mov    %rdx,%r14
    1ae1:	41 bd 01 00 00 00    	mov    $0x1,%r13d
    1ae7:	48 8d 6f 10          	lea    0x10(%rdi),%rbp
    1aeb:	48 83 fa 01          	cmp    $0x1,%rdx
    1aef:	77 0c                	ja     1afd <rio_readlineb+0x2d>
    1af1:	eb 60                	jmp    1b53 <rio_readlineb+0x83>
    1af3:	e8 c8 f2 ff ff       	callq  dc0 <__errno_location@plt>
    1af8:	83 38 04             	cmpl   $0x4,(%rax)
    1afb:	75 67                	jne    1b64 <rio_readlineb+0x94>
    1afd:	8b 43 04             	mov    0x4(%rbx),%eax
    1b00:	85 c0                	test   %eax,%eax
    1b02:	7f 20                	jg     1b24 <rio_readlineb+0x54>
    1b04:	ba 00 20 00 00       	mov    $0x2000,%edx
    1b09:	48 89 ee             	mov    %rbp,%rsi
    1b0c:	8b 3b                	mov    (%rbx),%edi
    1b0e:	e8 1d f3 ff ff       	callq  e30 <read@plt>
    1b13:	89 43 04             	mov    %eax,0x4(%rbx)
    1b16:	85 c0                	test   %eax,%eax
    1b18:	78 d9                	js     1af3 <rio_readlineb+0x23>
    1b1a:	85 c0                	test   %eax,%eax
    1b1c:	74 4f                	je     1b6d <rio_readlineb+0x9d>
    1b1e:	48 89 6b 08          	mov    %rbp,0x8(%rbx)
    1b22:	eb d9                	jmp    1afd <rio_readlineb+0x2d>
    1b24:	48 8b 53 08          	mov    0x8(%rbx),%rdx
    1b28:	0f b6 0a             	movzbl (%rdx),%ecx
    1b2b:	48 83 c2 01          	add    $0x1,%rdx
    1b2f:	48 89 53 08          	mov    %rdx,0x8(%rbx)
    1b33:	83 e8 01             	sub    $0x1,%eax
    1b36:	89 43 04             	mov    %eax,0x4(%rbx)
    1b39:	49 83 c4 01          	add    $0x1,%r12
    1b3d:	41 88 4c 24 ff       	mov    %cl,-0x1(%r12)
    1b42:	80 f9 0a             	cmp    $0xa,%cl
    1b45:	74 0c                	je     1b53 <rio_readlineb+0x83>
    1b47:	41 83 c5 01          	add    $0x1,%r13d
    1b4b:	49 63 c5             	movslq %r13d,%rax
    1b4e:	4c 39 f0             	cmp    %r14,%rax
    1b51:	72 aa                	jb     1afd <rio_readlineb+0x2d>
    1b53:	41 c6 04 24 00       	movb   $0x0,(%r12)
    1b58:	49 63 c5             	movslq %r13d,%rax
    1b5b:	5b                   	pop    %rbx
    1b5c:	5d                   	pop    %rbp
    1b5d:	41 5c                	pop    %r12
    1b5f:	41 5d                	pop    %r13
    1b61:	41 5e                	pop    %r14
    1b63:	c3                   	retq   
    1b64:	48 c7 c0 ff ff ff ff 	mov    $0xffffffffffffffff,%rax
    1b6b:	eb 05                	jmp    1b72 <rio_readlineb+0xa2>
    1b6d:	b8 00 00 00 00       	mov    $0x0,%eax
    1b72:	85 c0                	test   %eax,%eax
    1b74:	75 0d                	jne    1b83 <rio_readlineb+0xb3>
    1b76:	b8 00 00 00 00       	mov    $0x0,%eax
    1b7b:	41 83 fd 01          	cmp    $0x1,%r13d
    1b7f:	75 d2                	jne    1b53 <rio_readlineb+0x83>
    1b81:	eb d8                	jmp    1b5b <rio_readlineb+0x8b>
    1b83:	48 c7 c0 ff ff ff ff 	mov    $0xffffffffffffffff,%rax
    1b8a:	eb cf                	jmp    1b5b <rio_readlineb+0x8b>

0000000000001b8c <submitr>:
    1b8c:	41 57                	push   %r15
    1b8e:	41 56                	push   %r14
    1b90:	41 55                	push   %r13
    1b92:	41 54                	push   %r12
    1b94:	55                   	push   %rbp
    1b95:	53                   	push   %rbx
    1b96:	48 81 ec 68 a0 00 00 	sub    $0xa068,%rsp
    1b9d:	49 89 fd             	mov    %rdi,%r13
    1ba0:	89 f5                	mov    %esi,%ebp
    1ba2:	48 89 14 24          	mov    %rdx,(%rsp)
    1ba6:	48 89 4c 24 08       	mov    %rcx,0x8(%rsp)
    1bab:	4c 89 44 24 10       	mov    %r8,0x10(%rsp)
    1bb0:	4c 89 cb             	mov    %r9,%rbx
    1bb3:	4c 8b bc 24 a0 a0 00 	mov    0xa0a0(%rsp),%r15
    1bba:	00 
    1bbb:	64 48 8b 04 25 28 00 	mov    %fs:0x28,%rax
    1bc2:	00 00 
    1bc4:	48 89 84 24 58 a0 00 	mov    %rax,0xa058(%rsp)
    1bcb:	00 
    1bcc:	31 c0                	xor    %eax,%eax
    1bce:	c7 44 24 2c 00 00 00 	movl   $0x0,0x2c(%rsp)
    1bd5:	00 
    1bd6:	ba 00 00 00 00       	mov    $0x0,%edx
    1bdb:	be 01 00 00 00       	mov    $0x1,%esi
    1be0:	bf 02 00 00 00       	mov    $0x2,%edi
    1be5:	e8 46 f3 ff ff       	callq  f30 <socket@plt>
    1bea:	85 c0                	test   %eax,%eax
    1bec:	0f 88 34 01 00 00    	js     1d26 <submitr+0x19a>
    1bf2:	41 89 c4             	mov    %eax,%r12d
    1bf5:	4c 89 ef             	mov    %r13,%rdi
    1bf8:	e8 63 f2 ff ff       	callq  e60 <gethostbyname@plt>
    1bfd:	48 85 c0             	test   %rax,%rax
    1c00:	0f 84 70 01 00 00    	je     1d76 <submitr+0x1ea>
    1c06:	4c 8d 6c 24 30       	lea    0x30(%rsp),%r13
    1c0b:	48 c7 44 24 32 00 00 	movq   $0x0,0x32(%rsp)
    1c12:	00 00 
    1c14:	c7 44 24 3a 00 00 00 	movl   $0x0,0x3a(%rsp)
    1c1b:	00 
    1c1c:	66 c7 44 24 3e 00 00 	movw   $0x0,0x3e(%rsp)
    1c23:	66 c7 44 24 30 02 00 	movw   $0x2,0x30(%rsp)
    1c2a:	48 63 50 14          	movslq 0x14(%rax),%rdx
    1c2e:	48 8b 40 18          	mov    0x18(%rax),%rax
    1c32:	48 8d 7c 24 34       	lea    0x34(%rsp),%rdi
    1c37:	b9 0c 00 00 00       	mov    $0xc,%ecx
    1c3c:	48 8b 30             	mov    (%rax),%rsi
    1c3f:	e8 2c f2 ff ff       	callq  e70 <__memmove_chk@plt>
    1c44:	66 c1 cd 08          	ror    $0x8,%bp
    1c48:	66 89 6c 24 32       	mov    %bp,0x32(%rsp)
    1c4d:	ba 10 00 00 00       	mov    $0x10,%edx
    1c52:	4c 89 ee             	mov    %r13,%rsi
    1c55:	44 89 e7             	mov    %r12d,%edi
    1c58:	e8 83 f2 ff ff       	callq  ee0 <connect@plt>
    1c5d:	85 c0                	test   %eax,%eax
    1c5f:	0f 88 7c 01 00 00    	js     1de1 <submitr+0x255>
    1c65:	49 c7 c1 ff ff ff ff 	mov    $0xffffffffffffffff,%r9
    1c6c:	b8 00 00 00 00       	mov    $0x0,%eax
    1c71:	4c 89 c9             	mov    %r9,%rcx
    1c74:	48 89 df             	mov    %rbx,%rdi
    1c77:	f2 ae                	repnz scas %es:(%rdi),%al
    1c79:	48 89 ce             	mov    %rcx,%rsi
    1c7c:	48 f7 d6             	not    %rsi
    1c7f:	4c 89 c9             	mov    %r9,%rcx
    1c82:	48 8b 3c 24          	mov    (%rsp),%rdi
    1c86:	f2 ae                	repnz scas %es:(%rdi),%al
    1c88:	49 89 c8             	mov    %rcx,%r8
    1c8b:	4c 89 c9             	mov    %r9,%rcx
    1c8e:	48 8b 7c 24 08       	mov    0x8(%rsp),%rdi
    1c93:	f2 ae                	repnz scas %es:(%rdi),%al
    1c95:	48 89 ca             	mov    %rcx,%rdx
    1c98:	48 f7 d2             	not    %rdx
    1c9b:	4c 89 c9             	mov    %r9,%rcx
    1c9e:	48 8b 7c 24 10       	mov    0x10(%rsp),%rdi
    1ca3:	f2 ae                	repnz scas %es:(%rdi),%al
    1ca5:	4c 29 c2             	sub    %r8,%rdx
    1ca8:	48 29 ca             	sub    %rcx,%rdx
    1cab:	48 8d 44 76 fd       	lea    -0x3(%rsi,%rsi,2),%rax
    1cb0:	48 8d 44 02 7b       	lea    0x7b(%rdx,%rax,1),%rax
    1cb5:	48 3d 00 20 00 00    	cmp    $0x2000,%rax
    1cbb:	0f 87 7d 01 00 00    	ja     1e3e <submitr+0x2b2>
    1cc1:	48 8d 94 24 50 40 00 	lea    0x4050(%rsp),%rdx
    1cc8:	00 
    1cc9:	b9 00 04 00 00       	mov    $0x400,%ecx
    1cce:	b8 00 00 00 00       	mov    $0x0,%eax
    1cd3:	48 89 d7             	mov    %rdx,%rdi
    1cd6:	f3 48 ab             	rep stos %rax,%es:(%rdi)
    1cd9:	48 c7 c1 ff ff ff ff 	mov    $0xffffffffffffffff,%rcx
    1ce0:	48 89 df             	mov    %rbx,%rdi
    1ce3:	f2 ae                	repnz scas %es:(%rdi),%al
    1ce5:	48 89 ca             	mov    %rcx,%rdx
    1ce8:	48 f7 d2             	not    %rdx
    1ceb:	48 89 d1             	mov    %rdx,%rcx
    1cee:	48 83 e9 01          	sub    $0x1,%rcx
    1cf2:	85 c9                	test   %ecx,%ecx
    1cf4:	0f 84 3f 06 00 00    	je     2339 <submitr+0x7ad>
    1cfa:	8d 41 ff             	lea    -0x1(%rcx),%eax
    1cfd:	4c 8d 74 03 01       	lea    0x1(%rbx,%rax,1),%r14
    1d02:	48 8d ac 24 50 40 00 	lea    0x4050(%rsp),%rbp
    1d09:	00 
    1d0a:	48 8d 84 24 50 80 00 	lea    0x8050(%rsp),%rax
    1d11:	00 
    1d12:	48 89 44 24 18       	mov    %rax,0x18(%rsp)
    1d17:	49 bd d9 ff 00 00 00 	movabs $0x2000000000ffd9,%r13
    1d1e:	00 20 00 
    1d21:	e9 a6 01 00 00       	jmpq   1ecc <submitr+0x340>
    1d26:	48 b8 45 72 72 6f 72 	movabs $0x43203a726f727245,%rax
    1d2d:	3a 20 43 
    1d30:	48 ba 6c 69 65 6e 74 	movabs $0x6e7520746e65696c,%rdx
    1d37:	20 75 6e 
    1d3a:	49 89 07             	mov    %rax,(%r15)
    1d3d:	49 89 57 08          	mov    %rdx,0x8(%r15)
    1d41:	48 b8 61 62 6c 65 20 	movabs $0x206f7420656c6261,%rax
    1d48:	74 6f 20 
    1d4b:	48 ba 63 72 65 61 74 	movabs $0x7320657461657263,%rdx
    1d52:	65 20 73 
    1d55:	49 89 47 10          	mov    %rax,0x10(%r15)
    1d59:	49 89 57 18          	mov    %rdx,0x18(%r15)
    1d5d:	41 c7 47 20 6f 63 6b 	movl   $0x656b636f,0x20(%r15)
    1d64:	65 
    1d65:	66 41 c7 47 24 74 00 	movw   $0x74,0x24(%r15)
    1d6c:	b8 ff ff ff ff       	mov    $0xffffffff,%eax
    1d71:	e9 9a 04 00 00       	jmpq   2210 <submitr+0x684>
    1d76:	48 b8 45 72 72 6f 72 	movabs $0x44203a726f727245,%rax
    1d7d:	3a 20 44 
    1d80:	48 ba 4e 53 20 69 73 	movabs $0x6e7520736920534e,%rdx
    1d87:	20 75 6e 
    1d8a:	49 89 07             	mov    %rax,(%r15)
    1d8d:	49 89 57 08          	mov    %rdx,0x8(%r15)
    1d91:	48 b8 61 62 6c 65 20 	movabs $0x206f7420656c6261,%rax
    1d98:	74 6f 20 
    1d9b:	48 ba 72 65 73 6f 6c 	movabs $0x2065766c6f736572,%rdx
    1da2:	76 65 20 
    1da5:	49 89 47 10          	mov    %rax,0x10(%r15)
    1da9:	49 89 57 18          	mov    %rdx,0x18(%r15)
    1dad:	48 b8 73 65 72 76 65 	movabs $0x6120726576726573,%rax
    1db4:	72 20 61 
    1db7:	49 89 47 20          	mov    %rax,0x20(%r15)
    1dbb:	41 c7 47 28 64 64 72 	movl   $0x65726464,0x28(%r15)
    1dc2:	65 
    1dc3:	66 41 c7 47 2c 73 73 	movw   $0x7373,0x2c(%r15)
    1dca:	41 c6 47 2e 00       	movb   $0x0,0x2e(%r15)
    1dcf:	44 89 e7             	mov    %r12d,%edi
    1dd2:	e8 49 f0 ff ff       	callq  e20 <close@plt>
    1dd7:	b8 ff ff ff ff       	mov    $0xffffffff,%eax
    1ddc:	e9 2f 04 00 00       	jmpq   2210 <submitr+0x684>
    1de1:	48 b8 45 72 72 6f 72 	movabs $0x55203a726f727245,%rax
    1de8:	3a 20 55 
    1deb:	48 ba 6e 61 62 6c 65 	movabs $0x6f7420656c62616e,%rdx
    1df2:	20 74 6f 
    1df5:	49 89 07             	mov    %rax,(%r15)
    1df8:	49 89 57 08          	mov    %rdx,0x8(%r15)
    1dfc:	48 b8 20 63 6f 6e 6e 	movabs $0x7463656e6e6f6320,%rax
    1e03:	65 63 74 
    1e06:	48 ba 20 74 6f 20 74 	movabs $0x20656874206f7420,%rdx
    1e0d:	68 65 20 
    1e10:	49 89 47 10          	mov    %rax,0x10(%r15)
    1e14:	49 89 57 18          	mov    %rdx,0x18(%r15)
    1e18:	41 c7 47 20 73 65 72 	movl   $0x76726573,0x20(%r15)
    1e1f:	76 
    1e20:	66 41 c7 47 24 65 72 	movw   $0x7265,0x24(%r15)
    1e27:	41 c6 47 26 00       	movb   $0x0,0x26(%r15)
    1e2c:	44 89 e7             	mov    %r12d,%edi
    1e2f:	e8 ec ef ff ff       	callq  e20 <close@plt>
    1e34:	b8 ff ff ff ff       	mov    $0xffffffff,%eax
    1e39:	e9 d2 03 00 00       	jmpq   2210 <submitr+0x684>
    1e3e:	48 b8 45 72 72 6f 72 	movabs $0x52203a726f727245,%rax
    1e45:	3a 20 52 
    1e48:	48 ba 65 73 75 6c 74 	movabs $0x747320746c757365,%rdx
    1e4f:	20 73 74 
    1e52:	49 89 07             	mov    %rax,(%r15)
    1e55:	49 89 57 08          	mov    %rdx,0x8(%r15)
    1e59:	48 b8 72 69 6e 67 20 	movabs $0x6f6f7420676e6972,%rax
    1e60:	74 6f 6f 
    1e63:	48 ba 20 6c 61 72 67 	movabs $0x202e656772616c20,%rdx
    1e6a:	65 2e 20 
    1e6d:	49 89 47 10          	mov    %rax,0x10(%r15)
    1e71:	49 89 57 18          	mov    %rdx,0x18(%r15)
    1e75:	48 b8 49 6e 63 72 65 	movabs $0x6573616572636e49,%rax
    1e7c:	61 73 65 
    1e7f:	48 ba 20 53 55 42 4d 	movabs $0x5254494d42555320,%rdx
    1e86:	49 54 52 
    1e89:	49 89 47 20          	mov    %rax,0x20(%r15)
    1e8d:	49 89 57 28          	mov    %rdx,0x28(%r15)
    1e91:	48 b8 5f 4d 41 58 42 	movabs $0x46554258414d5f,%rax
    1e98:	55 46 00 
    1e9b:	49 89 47 30          	mov    %rax,0x30(%r15)
    1e9f:	44 89 e7             	mov    %r12d,%edi
    1ea2:	e8 79 ef ff ff       	callq  e20 <close@plt>
    1ea7:	b8 ff ff ff ff       	mov    $0xffffffff,%eax
    1eac:	e9 5f 03 00 00       	jmpq   2210 <submitr+0x684>
    1eb1:	49 0f a3 c5          	bt     %rax,%r13
    1eb5:	73 21                	jae    1ed8 <submitr+0x34c>
    1eb7:	44 88 45 00          	mov    %r8b,0x0(%rbp)
    1ebb:	48 8d 6d 01          	lea    0x1(%rbp),%rbp
    1ebf:	48 83 c3 01          	add    $0x1,%rbx
    1ec3:	4c 39 f3             	cmp    %r14,%rbx
    1ec6:	0f 84 6d 04 00 00    	je     2339 <submitr+0x7ad>
    1ecc:	44 0f b6 03          	movzbl (%rbx),%r8d
    1ed0:	41 8d 40 d6          	lea    -0x2a(%r8),%eax
    1ed4:	3c 35                	cmp    $0x35,%al
    1ed6:	76 d9                	jbe    1eb1 <submitr+0x325>
    1ed8:	44 89 c0             	mov    %r8d,%eax
    1edb:	83 e0 df             	and    $0xffffffdf,%eax
    1ede:	83 e8 41             	sub    $0x41,%eax
    1ee1:	3c 19                	cmp    $0x19,%al
    1ee3:	76 d2                	jbe    1eb7 <submitr+0x32b>
    1ee5:	41 80 f8 20          	cmp    $0x20,%r8b
    1ee9:	74 60                	je     1f4b <submitr+0x3bf>
    1eeb:	41 8d 40 e0          	lea    -0x20(%r8),%eax
    1eef:	3c 5f                	cmp    $0x5f,%al
    1ef1:	76 0a                	jbe    1efd <submitr+0x371>
    1ef3:	41 80 f8 09          	cmp    $0x9,%r8b
    1ef7:	0f 85 af 03 00 00    	jne    22ac <submitr+0x720>
    1efd:	45 0f b6 c0          	movzbl %r8b,%r8d
    1f01:	48 8d 0d 58 0c 00 00 	lea    0xc58(%rip),%rcx        # 2b60 <array.3416+0x280>
    1f08:	ba 08 00 00 00       	mov    $0x8,%edx
    1f0d:	be 01 00 00 00       	mov    $0x1,%esi
    1f12:	48 8b 7c 24 18       	mov    0x18(%rsp),%rdi
    1f17:	b8 00 00 00 00       	mov    $0x0,%eax
    1f1c:	e8 ff ef ff ff       	callq  f20 <__sprintf_chk@plt>
    1f21:	0f b6 84 24 50 80 00 	movzbl 0x8050(%rsp),%eax
    1f28:	00 
    1f29:	88 45 00             	mov    %al,0x0(%rbp)
    1f2c:	0f b6 84 24 51 80 00 	movzbl 0x8051(%rsp),%eax
    1f33:	00 
    1f34:	88 45 01             	mov    %al,0x1(%rbp)
    1f37:	0f b6 84 24 52 80 00 	movzbl 0x8052(%rsp),%eax
    1f3e:	00 
    1f3f:	88 45 02             	mov    %al,0x2(%rbp)
    1f42:	48 8d 6d 03          	lea    0x3(%rbp),%rbp
    1f46:	e9 74 ff ff ff       	jmpq   1ebf <submitr+0x333>
    1f4b:	c6 45 00 2b          	movb   $0x2b,0x0(%rbp)
    1f4f:	48 8d 6d 01          	lea    0x1(%rbp),%rbp
    1f53:	e9 67 ff ff ff       	jmpq   1ebf <submitr+0x333>
    1f58:	48 01 c5             	add    %rax,%rbp
    1f5b:	48 29 c3             	sub    %rax,%rbx
    1f5e:	74 26                	je     1f86 <submitr+0x3fa>
    1f60:	48 89 da             	mov    %rbx,%rdx
    1f63:	48 89 ee             	mov    %rbp,%rsi
    1f66:	44 89 e7             	mov    %r12d,%edi
    1f69:	e8 82 ee ff ff       	callq  df0 <write@plt>
    1f6e:	48 85 c0             	test   %rax,%rax
    1f71:	7f e5                	jg     1f58 <submitr+0x3cc>
    1f73:	e8 48 ee ff ff       	callq  dc0 <__errno_location@plt>
    1f78:	83 38 04             	cmpl   $0x4,(%rax)
    1f7b:	0f 85 31 01 00 00    	jne    20b2 <submitr+0x526>
    1f81:	4c 89 f0             	mov    %r14,%rax
    1f84:	eb d2                	jmp    1f58 <submitr+0x3cc>
    1f86:	4d 85 ed             	test   %r13,%r13
    1f89:	0f 88 23 01 00 00    	js     20b2 <submitr+0x526>
    1f8f:	44 89 64 24 40       	mov    %r12d,0x40(%rsp)
    1f94:	c7 44 24 44 00 00 00 	movl   $0x0,0x44(%rsp)
    1f9b:	00 
    1f9c:	48 8d 7c 24 40       	lea    0x40(%rsp),%rdi
    1fa1:	48 8d 47 10          	lea    0x10(%rdi),%rax
    1fa5:	48 89 44 24 48       	mov    %rax,0x48(%rsp)
    1faa:	48 8d b4 24 50 20 00 	lea    0x2050(%rsp),%rsi
    1fb1:	00 
    1fb2:	ba 00 20 00 00       	mov    $0x2000,%edx
    1fb7:	e8 14 fb ff ff       	callq  1ad0 <rio_readlineb>
    1fbc:	48 85 c0             	test   %rax,%rax
    1fbf:	0f 8e 4c 01 00 00    	jle    2111 <submitr+0x585>
    1fc5:	48 8d 4c 24 2c       	lea    0x2c(%rsp),%rcx
    1fca:	48 8d 94 24 50 60 00 	lea    0x6050(%rsp),%rdx
    1fd1:	00 
    1fd2:	48 8d bc 24 50 20 00 	lea    0x2050(%rsp),%rdi
    1fd9:	00 
    1fda:	4c 8d 84 24 50 80 00 	lea    0x8050(%rsp),%r8
    1fe1:	00 
    1fe2:	48 8d 35 7e 0b 00 00 	lea    0xb7e(%rip),%rsi        # 2b67 <array.3416+0x287>
    1fe9:	b8 00 00 00 00       	mov    $0x0,%eax
    1fee:	e8 ad ee ff ff       	callq  ea0 <__isoc99_sscanf@plt>
    1ff3:	44 8b 44 24 2c       	mov    0x2c(%rsp),%r8d
    1ff8:	41 81 f8 c8 00 00 00 	cmp    $0xc8,%r8d
    1fff:	0f 85 80 01 00 00    	jne    2185 <submitr+0x5f9>
    2005:	48 8d 9c 24 50 20 00 	lea    0x2050(%rsp),%rbx
    200c:	00 
    200d:	48 8d 2d 64 0b 00 00 	lea    0xb64(%rip),%rbp        # 2b78 <array.3416+0x298>
    2014:	4c 8d 6c 24 40       	lea    0x40(%rsp),%r13
    2019:	b9 03 00 00 00       	mov    $0x3,%ecx
    201e:	48 89 de             	mov    %rbx,%rsi
    2021:	48 89 ef             	mov    %rbp,%rdi
    2024:	f3 a6                	repz cmpsb %es:(%rdi),%ds:(%rsi)
    2026:	0f 97 c0             	seta   %al
    2029:	1c 00                	sbb    $0x0,%al
    202b:	84 c0                	test   %al,%al
    202d:	0f 84 89 01 00 00    	je     21bc <submitr+0x630>
    2033:	ba 00 20 00 00       	mov    $0x2000,%edx
    2038:	48 89 de             	mov    %rbx,%rsi
    203b:	4c 89 ef             	mov    %r13,%rdi
    203e:	e8 8d fa ff ff       	callq  1ad0 <rio_readlineb>
    2043:	48 85 c0             	test   %rax,%rax
    2046:	7f d1                	jg     2019 <submitr+0x48d>
    2048:	48 b8 45 72 72 6f 72 	movabs $0x43203a726f727245,%rax
    204f:	3a 20 43 
    2052:	48 ba 6c 69 65 6e 74 	movabs $0x6e7520746e65696c,%rdx
    2059:	20 75 6e 
    205c:	49 89 07             	mov    %rax,(%r15)
    205f:	49 89 57 08          	mov    %rdx,0x8(%r15)
    2063:	48 b8 61 62 6c 65 20 	movabs $0x206f7420656c6261,%rax
    206a:	74 6f 20 
    206d:	48 ba 72 65 61 64 20 	movabs $0x6165682064616572,%rdx
    2074:	68 65 61 
    2077:	49 89 47 10          	mov    %rax,0x10(%r15)
    207b:	49 89 57 18          	mov    %rdx,0x18(%r15)
    207f:	48 b8 64 65 72 73 20 	movabs $0x6f72662073726564,%rax
    2086:	66 72 6f 
    2089:	48 ba 6d 20 73 65 72 	movabs $0x726576726573206d,%rdx
    2090:	76 65 72 
    2093:	49 89 47 20          	mov    %rax,0x20(%r15)
    2097:	49 89 57 28          	mov    %rdx,0x28(%r15)
    209b:	41 c6 47 30 00       	movb   $0x0,0x30(%r15)
    20a0:	44 89 e7             	mov    %r12d,%edi
    20a3:	e8 78 ed ff ff       	callq  e20 <close@plt>
    20a8:	b8 ff ff ff ff       	mov    $0xffffffff,%eax
    20ad:	e9 5e 01 00 00       	jmpq   2210 <submitr+0x684>
    20b2:	48 b8 45 72 72 6f 72 	movabs $0x43203a726f727245,%rax
    20b9:	3a 20 43 
    20bc:	48 ba 6c 69 65 6e 74 	movabs $0x6e7520746e65696c,%rdx
    20c3:	20 75 6e 
    20c6:	49 89 07             	mov    %rax,(%r15)
    20c9:	49 89 57 08          	mov    %rdx,0x8(%r15)
    20cd:	48 b8 61 62 6c 65 20 	movabs $0x206f7420656c6261,%rax
    20d4:	74 6f 20 
    20d7:	48 ba 77 72 69 74 65 	movabs $0x6f74206574697277,%rdx
    20de:	20 74 6f 
    20e1:	49 89 47 10          	mov    %rax,0x10(%r15)
    20e5:	49 89 57 18          	mov    %rdx,0x18(%r15)
    20e9:	48 b8 20 74 68 65 20 	movabs $0x7265732065687420,%rax
    20f0:	73 65 72 
    20f3:	49 89 47 20          	mov    %rax,0x20(%r15)
    20f7:	41 c7 47 28 76 65 72 	movl   $0x726576,0x28(%r15)
    20fe:	00 
    20ff:	44 89 e7             	mov    %r12d,%edi
    2102:	e8 19 ed ff ff       	callq  e20 <close@plt>
    2107:	b8 ff ff ff ff       	mov    $0xffffffff,%eax
    210c:	e9 ff 00 00 00       	jmpq   2210 <submitr+0x684>
    2111:	48 b8 45 72 72 6f 72 	movabs $0x43203a726f727245,%rax
    2118:	3a 20 43 
    211b:	48 ba 6c 69 65 6e 74 	movabs $0x6e7520746e65696c,%rdx
    2122:	20 75 6e 
    2125:	49 89 07             	mov    %rax,(%r15)
    2128:	49 89 57 08          	mov    %rdx,0x8(%r15)
    212c:	48 b8 61 62 6c 65 20 	movabs $0x206f7420656c6261,%rax
    2133:	74 6f 20 
    2136:	48 ba 72 65 61 64 20 	movabs $0x7269662064616572,%rdx
    213d:	66 69 72 
    2140:	49 89 47 10          	mov    %rax,0x10(%r15)
    2144:	49 89 57 18          	mov    %rdx,0x18(%r15)
    2148:	48 b8 73 74 20 68 65 	movabs $0x6564616568207473,%rax
    214f:	61 64 65 
    2152:	48 ba 72 20 66 72 6f 	movabs $0x73206d6f72662072,%rdx
    2159:	6d 20 73 
    215c:	49 89 47 20          	mov    %rax,0x20(%r15)
    2160:	49 89 57 28          	mov    %rdx,0x28(%r15)
    2164:	41 c7 47 30 65 72 76 	movl   $0x65767265,0x30(%r15)
    216b:	65 
    216c:	66 41 c7 47 34 72 00 	movw   $0x72,0x34(%r15)
    2173:	44 89 e7             	mov    %r12d,%edi
    2176:	e8 a5 ec ff ff       	callq  e20 <close@plt>
    217b:	b8 ff ff ff ff       	mov    $0xffffffff,%eax
    2180:	e9 8b 00 00 00       	jmpq   2210 <submitr+0x684>
    2185:	4c 8d 8c 24 50 80 00 	lea    0x8050(%rsp),%r9
    218c:	00 
    218d:	48 8d 0d 24 09 00 00 	lea    0x924(%rip),%rcx        # 2ab8 <array.3416+0x1d8>
    2194:	48 c7 c2 ff ff ff ff 	mov    $0xffffffffffffffff,%rdx
    219b:	be 01 00 00 00       	mov    $0x1,%esi
    21a0:	4c 89 ff             	mov    %r15,%rdi
    21a3:	b8 00 00 00 00       	mov    $0x0,%eax
    21a8:	e8 73 ed ff ff       	callq  f20 <__sprintf_chk@plt>
    21ad:	44 89 e7             	mov    %r12d,%edi
    21b0:	e8 6b ec ff ff       	callq  e20 <close@plt>
    21b5:	b8 ff ff ff ff       	mov    $0xffffffff,%eax
    21ba:	eb 54                	jmp    2210 <submitr+0x684>
    21bc:	48 8d b4 24 50 20 00 	lea    0x2050(%rsp),%rsi
    21c3:	00 
    21c4:	48 8d 7c 24 40       	lea    0x40(%rsp),%rdi
    21c9:	ba 00 20 00 00       	mov    $0x2000,%edx
    21ce:	e8 fd f8 ff ff       	callq  1ad0 <rio_readlineb>
    21d3:	48 85 c0             	test   %rax,%rax
    21d6:	7e 61                	jle    2239 <submitr+0x6ad>
    21d8:	48 8d b4 24 50 20 00 	lea    0x2050(%rsp),%rsi
    21df:	00 
    21e0:	4c 89 ff             	mov    %r15,%rdi
    21e3:	e8 e8 eb ff ff       	callq  dd0 <strcpy@plt>
    21e8:	44 89 e7             	mov    %r12d,%edi
    21eb:	e8 30 ec ff ff       	callq  e20 <close@plt>
    21f0:	b9 03 00 00 00       	mov    $0x3,%ecx
    21f5:	48 8d 3d 7f 09 00 00 	lea    0x97f(%rip),%rdi        # 2b7b <array.3416+0x29b>
    21fc:	4c 89 fe             	mov    %r15,%rsi
    21ff:	f3 a6                	repz cmpsb %es:(%rdi),%ds:(%rsi)
    2201:	0f 97 c0             	seta   %al
    2204:	1c 00                	sbb    $0x0,%al
    2206:	84 c0                	test   %al,%al
    2208:	0f 95 c0             	setne  %al
    220b:	0f b6 c0             	movzbl %al,%eax
    220e:	f7 d8                	neg    %eax
    2210:	48 8b 94 24 58 a0 00 	mov    0xa058(%rsp),%rdx
    2217:	00 
    2218:	64 48 33 14 25 28 00 	xor    %fs:0x28,%rdx
    221f:	00 00 
    2221:	0f 85 8d 01 00 00    	jne    23b4 <submitr+0x828>
    2227:	48 81 c4 68 a0 00 00 	add    $0xa068,%rsp
    222e:	5b                   	pop    %rbx
    222f:	5d                   	pop    %rbp
    2230:	41 5c                	pop    %r12
    2232:	41 5d                	pop    %r13
    2234:	41 5e                	pop    %r14
    2236:	41 5f                	pop    %r15
    2238:	c3                   	retq   
    2239:	48 b8 45 72 72 6f 72 	movabs $0x43203a726f727245,%rax
    2240:	3a 20 43 
    2243:	48 ba 6c 69 65 6e 74 	movabs $0x6e7520746e65696c,%rdx
    224a:	20 75 6e 
    224d:	49 89 07             	mov    %rax,(%r15)
    2250:	49 89 57 08          	mov    %rdx,0x8(%r15)
    2254:	48 b8 61 62 6c 65 20 	movabs $0x206f7420656c6261,%rax
    225b:	74 6f 20 
    225e:	48 ba 72 65 61 64 20 	movabs $0x6174732064616572,%rdx
    2265:	73 74 61 
    2268:	49 89 47 10          	mov    %rax,0x10(%r15)
    226c:	49 89 57 18          	mov    %rdx,0x18(%r15)
    2270:	48 b8 74 75 73 20 6d 	movabs $0x7373656d20737574,%rax
    2277:	65 73 73 
    227a:	48 ba 61 67 65 20 66 	movabs $0x6d6f726620656761,%rdx
    2281:	72 6f 6d 
    2284:	49 89 47 20          	mov    %rax,0x20(%r15)
    2288:	49 89 57 28          	mov    %rdx,0x28(%r15)
    228c:	48 b8 20 73 65 72 76 	movabs $0x72657672657320,%rax
    2293:	65 72 00 
    2296:	49 89 47 30          	mov    %rax,0x30(%r15)
    229a:	44 89 e7             	mov    %r12d,%edi
    229d:	e8 7e eb ff ff       	callq  e20 <close@plt>
    22a2:	b8 ff ff ff ff       	mov    $0xffffffff,%eax
    22a7:	e9 64 ff ff ff       	jmpq   2210 <submitr+0x684>
    22ac:	48 b8 45 72 72 6f 72 	movabs $0x52203a726f727245,%rax
    22b3:	3a 20 52 
    22b6:	48 ba 65 73 75 6c 74 	movabs $0x747320746c757365,%rdx
    22bd:	20 73 74 
    22c0:	49 89 07             	mov    %rax,(%r15)
    22c3:	49 89 57 08          	mov    %rdx,0x8(%r15)
    22c7:	48 b8 72 69 6e 67 20 	movabs $0x6e6f6320676e6972,%rax
    22ce:	63 6f 6e 
    22d1:	48 ba 74 61 69 6e 73 	movabs $0x6e6120736e696174,%rdx
    22d8:	20 61 6e 
    22db:	49 89 47 10          	mov    %rax,0x10(%r15)
    22df:	49 89 57 18          	mov    %rdx,0x18(%r15)
    22e3:	48 b8 20 69 6c 6c 65 	movabs $0x6c6167656c6c6920,%rax
    22ea:	67 61 6c 
    22ed:	48 ba 20 6f 72 20 75 	movabs $0x72706e7520726f20,%rdx
    22f4:	6e 70 72 
    22f7:	49 89 47 20          	mov    %rax,0x20(%r15)
    22fb:	49 89 57 28          	mov    %rdx,0x28(%r15)
    22ff:	48 b8 69 6e 74 61 62 	movabs $0x20656c6261746e69,%rax
    2306:	6c 65 20 
    2309:	48 ba 63 68 61 72 61 	movabs $0x6574636172616863,%rdx
    2310:	63 74 65 
    2313:	49 89 47 30          	mov    %rax,0x30(%r15)
    2317:	49 89 57 38          	mov    %rdx,0x38(%r15)
    231b:	66 41 c7 47 40 72 2e 	movw   $0x2e72,0x40(%r15)
    2322:	41 c6 47 42 00       	movb   $0x0,0x42(%r15)
    2327:	44 89 e7             	mov    %r12d,%edi
    232a:	e8 f1 ea ff ff       	callq  e20 <close@plt>
    232f:	b8 ff ff ff ff       	mov    $0xffffffff,%eax
    2334:	e9 d7 fe ff ff       	jmpq   2210 <submitr+0x684>
    2339:	48 8d 9c 24 50 20 00 	lea    0x2050(%rsp),%rbx
    2340:	00 
    2341:	48 8d 84 24 50 40 00 	lea    0x4050(%rsp),%rax
    2348:	00 
    2349:	50                   	push   %rax
    234a:	ff 74 24 18          	pushq  0x18(%rsp)
    234e:	4c 8b 4c 24 18       	mov    0x18(%rsp),%r9
    2353:	4c 8b 44 24 10       	mov    0x10(%rsp),%r8
    2358:	48 8d 0d 89 07 00 00 	lea    0x789(%rip),%rcx        # 2ae8 <array.3416+0x208>
    235f:	ba 00 20 00 00       	mov    $0x2000,%edx
    2364:	be 01 00 00 00       	mov    $0x1,%esi
    2369:	48 89 df             	mov    %rbx,%rdi
    236c:	b8 00 00 00 00       	mov    $0x0,%eax
    2371:	e8 aa eb ff ff       	callq  f20 <__sprintf_chk@plt>
    2376:	48 c7 c1 ff ff ff ff 	mov    $0xffffffffffffffff,%rcx
    237d:	b8 00 00 00 00       	mov    $0x0,%eax
    2382:	48 89 df             	mov    %rbx,%rdi
    2385:	f2 ae                	repnz scas %es:(%rdi),%al
    2387:	48 89 ce             	mov    %rcx,%rsi
    238a:	48 f7 d6             	not    %rsi
    238d:	4c 8d 6e ff          	lea    -0x1(%rsi),%r13
    2391:	48 83 c4 10          	add    $0x10,%rsp
    2395:	4c 89 eb             	mov    %r13,%rbx
    2398:	48 8d ac 24 50 20 00 	lea    0x2050(%rsp),%rbp
    239f:	00 
    23a0:	41 be 00 00 00 00    	mov    $0x0,%r14d
    23a6:	4d 85 ed             	test   %r13,%r13
    23a9:	0f 85 b1 fb ff ff    	jne    1f60 <submitr+0x3d4>
    23af:	e9 db fb ff ff       	jmpq   1f8f <submitr+0x403>
    23b4:	e8 47 ea ff ff       	callq  e00 <__stack_chk_fail@plt>

00000000000023b9 <init_timeout>:
    23b9:	85 ff                	test   %edi,%edi
    23bb:	74 25                	je     23e2 <init_timeout+0x29>
    23bd:	53                   	push   %rbx
    23be:	89 fb                	mov    %edi,%ebx
    23c0:	48 8d 35 d9 f6 ff ff 	lea    -0x927(%rip),%rsi        # 1aa0 <sigalrm_handler>
    23c7:	bf 0e 00 00 00       	mov    $0xe,%edi
    23cc:	e8 7f ea ff ff       	callq  e50 <signal@plt>
    23d1:	85 db                	test   %ebx,%ebx
    23d3:	bf 00 00 00 00       	mov    $0x0,%edi
    23d8:	0f 49 fb             	cmovns %ebx,%edi
    23db:	e8 30 ea ff ff       	callq  e10 <alarm@plt>
    23e0:	5b                   	pop    %rbx
    23e1:	c3                   	retq   
    23e2:	f3 c3                	repz retq 

00000000000023e4 <init_driver>:
    23e4:	41 54                	push   %r12
    23e6:	55                   	push   %rbp
    23e7:	53                   	push   %rbx
    23e8:	48 83 ec 20          	sub    $0x20,%rsp
    23ec:	49 89 fc             	mov    %rdi,%r12
    23ef:	64 48 8b 04 25 28 00 	mov    %fs:0x28,%rax
    23f6:	00 00 
    23f8:	48 89 44 24 18       	mov    %rax,0x18(%rsp)
    23fd:	31 c0                	xor    %eax,%eax
    23ff:	be 01 00 00 00       	mov    $0x1,%esi
    2404:	bf 0d 00 00 00       	mov    $0xd,%edi
    2409:	e8 42 ea ff ff       	callq  e50 <signal@plt>
    240e:	be 01 00 00 00       	mov    $0x1,%esi
    2413:	bf 1d 00 00 00       	mov    $0x1d,%edi
    2418:	e8 33 ea ff ff       	callq  e50 <signal@plt>
    241d:	be 01 00 00 00       	mov    $0x1,%esi
    2422:	bf 1d 00 00 00       	mov    $0x1d,%edi
    2427:	e8 24 ea ff ff       	callq  e50 <signal@plt>
    242c:	ba 00 00 00 00       	mov    $0x0,%edx
    2431:	be 01 00 00 00       	mov    $0x1,%esi
    2436:	bf 02 00 00 00       	mov    $0x2,%edi
    243b:	e8 f0 ea ff ff       	callq  f30 <socket@plt>
    2440:	85 c0                	test   %eax,%eax
    2442:	0f 88 a3 00 00 00    	js     24eb <init_driver+0x107>
    2448:	89 c3                	mov    %eax,%ebx
    244a:	48 8d 3d 2d 07 00 00 	lea    0x72d(%rip),%rdi        # 2b7e <array.3416+0x29e>
    2451:	e8 0a ea ff ff       	callq  e60 <gethostbyname@plt>
    2456:	48 85 c0             	test   %rax,%rax
    2459:	0f 84 df 00 00 00    	je     253e <init_driver+0x15a>
    245f:	48 89 e5             	mov    %rsp,%rbp
    2462:	48 c7 44 24 02 00 00 	movq   $0x0,0x2(%rsp)
    2469:	00 00 
    246b:	c7 45 0a 00 00 00 00 	movl   $0x0,0xa(%rbp)
    2472:	66 c7 45 0e 00 00    	movw   $0x0,0xe(%rbp)
    2478:	66 c7 04 24 02 00    	movw   $0x2,(%rsp)
    247e:	48 63 50 14          	movslq 0x14(%rax),%rdx
    2482:	48 8b 40 18          	mov    0x18(%rax),%rax
    2486:	48 8d 7d 04          	lea    0x4(%rbp),%rdi
    248a:	b9 0c 00 00 00       	mov    $0xc,%ecx
    248f:	48 8b 30             	mov    (%rax),%rsi
    2492:	e8 d9 e9 ff ff       	callq  e70 <__memmove_chk@plt>
    2497:	66 c7 44 24 02 3b 6e 	movw   $0x6e3b,0x2(%rsp)
    249e:	ba 10 00 00 00       	mov    $0x10,%edx
    24a3:	48 89 ee             	mov    %rbp,%rsi
    24a6:	89 df                	mov    %ebx,%edi
    24a8:	e8 33 ea ff ff       	callq  ee0 <connect@plt>
    24ad:	85 c0                	test   %eax,%eax
    24af:	0f 88 fb 00 00 00    	js     25b0 <init_driver+0x1cc>
    24b5:	89 df                	mov    %ebx,%edi
    24b7:	e8 64 e9 ff ff       	callq  e20 <close@plt>
    24bc:	66 41 c7 04 24 4f 4b 	movw   $0x4b4f,(%r12)
    24c3:	41 c6 44 24 02 00    	movb   $0x0,0x2(%r12)
    24c9:	b8 00 00 00 00       	mov    $0x0,%eax
    24ce:	48 8b 4c 24 18       	mov    0x18(%rsp),%rcx
    24d3:	64 48 33 0c 25 28 00 	xor    %fs:0x28,%rcx
    24da:	00 00 
    24dc:	0f 85 06 01 00 00    	jne    25e8 <init_driver+0x204>
    24e2:	48 83 c4 20          	add    $0x20,%rsp
    24e6:	5b                   	pop    %rbx
    24e7:	5d                   	pop    %rbp
    24e8:	41 5c                	pop    %r12
    24ea:	c3                   	retq   
    24eb:	48 b8 45 72 72 6f 72 	movabs $0x43203a726f727245,%rax
    24f2:	3a 20 43 
    24f5:	48 ba 6c 69 65 6e 74 	movabs $0x6e7520746e65696c,%rdx
    24fc:	20 75 6e 
    24ff:	49 89 04 24          	mov    %rax,(%r12)
    2503:	49 89 54 24 08       	mov    %rdx,0x8(%r12)
    2508:	48 b8 61 62 6c 65 20 	movabs $0x206f7420656c6261,%rax
    250f:	74 6f 20 
    2512:	48 ba 63 72 65 61 74 	movabs $0x7320657461657263,%rdx
    2519:	65 20 73 
    251c:	49 89 44 24 10       	mov    %rax,0x10(%r12)
    2521:	49 89 54 24 18       	mov    %rdx,0x18(%r12)
    2526:	41 c7 44 24 20 6f 63 	movl   $0x656b636f,0x20(%r12)
    252d:	6b 65 
    252f:	66 41 c7 44 24 24 74 	movw   $0x74,0x24(%r12)
    2536:	00 
    2537:	b8 ff ff ff ff       	mov    $0xffffffff,%eax
    253c:	eb 90                	jmp    24ce <init_driver+0xea>
    253e:	48 b8 45 72 72 6f 72 	movabs $0x44203a726f727245,%rax
    2545:	3a 20 44 
    2548:	48 ba 4e 53 20 69 73 	movabs $0x6e7520736920534e,%rdx
    254f:	20 75 6e 
    2552:	49 89 04 24          	mov    %rax,(%r12)
    2556:	49 89 54 24 08       	mov    %rdx,0x8(%r12)
    255b:	48 b8 61 62 6c 65 20 	movabs $0x206f7420656c6261,%rax
    2562:	74 6f 20 
    2565:	48 ba 72 65 73 6f 6c 	movabs $0x2065766c6f736572,%rdx
    256c:	76 65 20 
    256f:	49 89 44 24 10       	mov    %rax,0x10(%r12)
    2574:	49 89 54 24 18       	mov    %rdx,0x18(%r12)
    2579:	48 b8 73 65 72 76 65 	movabs $0x6120726576726573,%rax
    2580:	72 20 61 
    2583:	49 89 44 24 20       	mov    %rax,0x20(%r12)
    2588:	41 c7 44 24 28 64 64 	movl   $0x65726464,0x28(%r12)
    258f:	72 65 
    2591:	66 41 c7 44 24 2c 73 	movw   $0x7373,0x2c(%r12)
    2598:	73 
    2599:	41 c6 44 24 2e 00    	movb   $0x0,0x2e(%r12)
    259f:	89 df                	mov    %ebx,%edi
    25a1:	e8 7a e8 ff ff       	callq  e20 <close@plt>
    25a6:	b8 ff ff ff ff       	mov    $0xffffffff,%eax
    25ab:	e9 1e ff ff ff       	jmpq   24ce <init_driver+0xea>
    25b0:	4c 8d 05 c7 05 00 00 	lea    0x5c7(%rip),%r8        # 2b7e <array.3416+0x29e>
    25b7:	48 8d 0d 7a 05 00 00 	lea    0x57a(%rip),%rcx        # 2b38 <array.3416+0x258>
    25be:	48 c7 c2 ff ff ff ff 	mov    $0xffffffffffffffff,%rdx
    25c5:	be 01 00 00 00       	mov    $0x1,%esi
    25ca:	4c 89 e7             	mov    %r12,%rdi
    25cd:	b8 00 00 00 00       	mov    $0x0,%eax
    25d2:	e8 49 e9 ff ff       	callq  f20 <__sprintf_chk@plt>
    25d7:	89 df                	mov    %ebx,%edi
    25d9:	e8 42 e8 ff ff       	callq  e20 <close@plt>
    25de:	b8 ff ff ff ff       	mov    $0xffffffff,%eax
    25e3:	e9 e6 fe ff ff       	jmpq   24ce <init_driver+0xea>
    25e8:	e8 13 e8 ff ff       	callq  e00 <__stack_chk_fail@plt>

00000000000025ed <driver_post>:
    25ed:	53                   	push   %rbx
    25ee:	48 89 cb             	mov    %rcx,%rbx
    25f1:	85 d2                	test   %edx,%edx
    25f3:	75 17                	jne    260c <driver_post+0x1f>
    25f5:	48 85 ff             	test   %rdi,%rdi
    25f8:	74 05                	je     25ff <driver_post+0x12>
    25fa:	80 3f 00             	cmpb   $0x0,(%rdi)
    25fd:	75 36                	jne    2635 <driver_post+0x48>
    25ff:	66 c7 03 4f 4b       	movw   $0x4b4f,(%rbx)
    2604:	c6 43 02 00          	movb   $0x0,0x2(%rbx)
    2608:	89 d0                	mov    %edx,%eax
    260a:	5b                   	pop    %rbx
    260b:	c3                   	retq   
    260c:	48 89 f2             	mov    %rsi,%rdx
    260f:	48 8d 35 7b 05 00 00 	lea    0x57b(%rip),%rsi        # 2b91 <array.3416+0x2b1>
    2616:	bf 01 00 00 00       	mov    $0x1,%edi
    261b:	b8 00 00 00 00       	mov    $0x0,%eax
    2620:	e8 8b e8 ff ff       	callq  eb0 <__printf_chk@plt>
    2625:	66 c7 03 4f 4b       	movw   $0x4b4f,(%rbx)
    262a:	c6 43 02 00          	movb   $0x0,0x2(%rbx)
    262e:	b8 00 00 00 00       	mov    $0x0,%eax
    2633:	eb d5                	jmp    260a <driver_post+0x1d>
    2635:	48 83 ec 08          	sub    $0x8,%rsp
    2639:	51                   	push   %rcx
    263a:	49 89 f1             	mov    %rsi,%r9
    263d:	4c 8d 05 64 05 00 00 	lea    0x564(%rip),%r8        # 2ba8 <array.3416+0x2c8>
    2644:	48 89 f9             	mov    %rdi,%rcx
    2647:	48 8d 15 5e 05 00 00 	lea    0x55e(%rip),%rdx        # 2bac <array.3416+0x2cc>
    264e:	be 6e 3b 00 00       	mov    $0x3b6e,%esi
    2653:	48 8d 3d 24 05 00 00 	lea    0x524(%rip),%rdi        # 2b7e <array.3416+0x29e>
    265a:	e8 2d f5 ff ff       	callq  1b8c <submitr>
    265f:	48 83 c4 10          	add    $0x10,%rsp
    2663:	eb a5                	jmp    260a <driver_post+0x1d>
    2665:	66 2e 0f 1f 84 00 00 	nopw   %cs:0x0(%rax,%rax,1)
    266c:	00 00 00 
    266f:	90                   	nop

0000000000002670 <__libc_csu_init>:
    2670:	41 57                	push   %r15
    2672:	41 56                	push   %r14
    2674:	49 89 d7             	mov    %rdx,%r15
    2677:	41 55                	push   %r13
    2679:	41 54                	push   %r12
    267b:	4c 8d 25 76 16 20 00 	lea    0x201676(%rip),%r12        # 203cf8 <__frame_dummy_init_array_entry>
    2682:	55                   	push   %rbp
    2683:	48 8d 2d 76 16 20 00 	lea    0x201676(%rip),%rbp        # 203d00 <__init_array_end>
    268a:	53                   	push   %rbx
    268b:	41 89 fd             	mov    %edi,%r13d
    268e:	49 89 f6             	mov    %rsi,%r14
    2691:	4c 29 e5             	sub    %r12,%rbp
    2694:	48 83 ec 08          	sub    $0x8,%rsp
    2698:	48 c1 fd 03          	sar    $0x3,%rbp
    269c:	e8 e7 e6 ff ff       	callq  d88 <_init>
    26a1:	48 85 ed             	test   %rbp,%rbp
    26a4:	74 20                	je     26c6 <__libc_csu_init+0x56>
    26a6:	31 db                	xor    %ebx,%ebx
    26a8:	0f 1f 84 00 00 00 00 	nopl   0x0(%rax,%rax,1)
    26af:	00 
    26b0:	4c 89 fa             	mov    %r15,%rdx
    26b3:	4c 89 f6             	mov    %r14,%rsi
    26b6:	44 89 ef             	mov    %r13d,%edi
    26b9:	41 ff 14 dc          	callq  *(%r12,%rbx,8)
    26bd:	48 83 c3 01          	add    $0x1,%rbx
    26c1:	48 39 dd             	cmp    %rbx,%rbp
    26c4:	75 ea                	jne    26b0 <__libc_csu_init+0x40>
    26c6:	48 83 c4 08          	add    $0x8,%rsp
    26ca:	5b                   	pop    %rbx
    26cb:	5d                   	pop    %rbp
    26cc:	41 5c                	pop    %r12
    26ce:	41 5d                	pop    %r13
    26d0:	41 5e                	pop    %r14
    26d2:	41 5f                	pop    %r15
    26d4:	c3                   	retq   
    26d5:	90                   	nop
    26d6:	66 2e 0f 1f 84 00 00 	nopw   %cs:0x0(%rax,%rax,1)
    26dd:	00 00 00 

00000000000026e0 <__libc_csu_fini>:
    26e0:	f3 c3                	repz retq 

Disassembly of section .fini:

00000000000026e4 <_fini>:
    26e4:	48 83 ec 08          	sub    $0x8,%rsp
    26e8:	48 83 c4 08          	add    $0x8,%rsp
    26ec:	c3                   	retq   
